(dp0
I0
F0.5
sI1
F0.2180261683040014
sI3
F0.49804200036977486
sI5
F0.4979280262640382
sI7
F0.08071089098565844
sI9
F0.4667278039886788
sI11
F0.46428237229330427
sI14
F0.5
sI15
F0.45657883284304296
sI16
F0.38700868340768774
sI19
F0.07819203650560586
sI21
F0.49577513073095053
sI22
F0.673337348348802
sI27
F0.5004263585504789
sI29
F0.49431810087602784
sI32
F0.500005
sI33
F0.4490654466309748
sI34
F0.05833511735255447
sI38
F0.50095
sI42
F0.49995
sI44
F0.5
sI45
F0.49479832027799997
sI46
F0.43960948024765156
sI48
F0.5
sI50
F0.4995
sI52
F0.036471706622061374
sI55
F0.07504509731409997
sI57
F0.3750349433046146
sI58
F0.05124976424843636
sI63
F0.462540871039793
sI64
F0.40517119286346087
sI66
F0.5
sI68
F0.5
sI70
F0.3369164539640181
sI76
F0.036199931277997956
sI81
F0.48297713997739655
sI83
F0.481732992837265
sI86
F0.4914
sI87
F0.48004953204750306
sI88
F0.4768717918512846
sI92
F0.5042078214435001
sI96
F0.5
sI98
F0.5
sI99
F0.44562206003047683
sI100
F0.10174378990804592
sI102
F0.485061030055
sI104
F0.45
sI106
F0.007258113522332625
sI110
F0.46347557825612584
sI114
F0.495
sI116
F0.405
sI125
F0.5
sI126
F0.48645
sI128
F0.405
sI131
F0.5
sI132
F0.45
sI133
F0.45438934499999994
sI135
F0.4751657197056385
sI136
F0.41846235396131815
sI138
F0.5
sI140
F0.45
sI142
F0.36450000000000005
sI144
F0.5
sI146
F0.5
sI149
F0.5
sI150
F0.5
sI151
F0.5
sI154
F0.01694336119796197
sI156
F0.45
sI157
F0.012132411751104348
sI163
F0.08607002359776278
sI165
F0.49478545808719643
sI166
F0.7162699609821601
sI171
F0.45213358808054455
sI172
F0.22927754894243232
sI174
F0.48747205
sI176
F0.5095000000000001
sI178
F0.3173978118413308
sI184
F0.7406723144853389
sI189
F0.4983569331338019
sI190
F0.7415315997822758
sI192
F0.501146847279
sI194
F0.5
sI196
F0.0026514648344400115
sI198
F0.5020930002269332
sI200
F0.5
sI203
F0.5
sI204
F0.508330002269332
sI205
F0.9709251314984799
sI208
F0.2657205
sI210
F0.5
sI211
F0.907348990557408
sI220
F0.03541279727244347
sI226
F0.00943348334379134
sI228
F0.45
sI229
I0
sI243
F0.4959256079055995
sI245
F0.4893853241137661
sI248
F0.5
sI249
F0.49393279347514774
sI250
F0.5037368371742978
sI254
F0.43883244677791017
sI258
F0.495
sI260
F0.40905
sI261
F0.49354364326591393
sI262
F0.45675834608969784
sI264
F0.5014
sI266
F0.5
sI268
F0.43941658024917907
sI272
F0.49784005000000003
sI276
F0.5010971005
sI278
F0.45
sI287
F0.5
sI288
F0.4922413605
sI290
F0.45
sI293
F0.5
sI294
F0.45
sI295
F0.5017195
sI297
F0.4939745559153883
sI298
F0.4915970434165064
sI300
F0.5
sI302
F0.5
sI304
F0.4896559544063811
sI306
F0.5
sI308
F0.405
sI311
F0.5
sI312
F0.5
sI313
F0.4732264316297099
sI316
F0.44435938759083976
sI318
F0.5
sI319
F0.5399407202438784
sI326
F0.5042872687500001
sI330
F0.48905610065449645
sI332
F0.45
sI341
F0.5
sI342
F0.5
sI344
F0.45
sI347
F0.5
sI348
F0.405
sI349
F0.34729147474938005
sI359
I0
sI371
I0
sI375
I0
sI378
F0.50119307212455
sI380
F0.5080544212455
sI383
F0.55
sI384
F0.4873586735444627
sI385
F0.46547421987901205
sI389
F0.5
sI393
F0.5
sI395
F0.5
sI396
F0.5
sI397
F0.3503978131303535
sI399
F0.5
sI401
F0.5
sI403
F0.215233605
sI405
F0.4936523870063935
sI406
F0.5297563653340064
sI408
F0.5000261500000001
sI410
F0.5
sI412
F0.4975435449763952
sI414
F0.49076864109999996
sI416
F0.405
sI419
F0.55
sI420
F0.45
sI421
F0.9709251314984799
sI424
F0.44288667314010716
sI426
F0.5
sI427
F0.87290670858355
sI432
F0.50149755
sI434
F0.5149755
sI437
F0.55
sI438
F0.5120069500000001
sI439
F0.7608515499999999
sI443
F0.55
sI447
F0.55
sI449
F0.5
sI450
F0.511695
sI451
F0.55
sI453
F0.55
sI455
F0.5
sI457
F0.517195
sI460
F0.4168506741206869
sI462
F0.5002615
sI463
F0.502615
sI468
F0.45
sI469
F0.5
sI471
F0.5
sI473
F0.5
sI475
F0.405
sI481
F0.6303599847618225
sI487
F0.05263162320064691
sI489
F0.49642331255534716
sI490
F0.5886612417983716
sI495
F0.34575815950846756
sI496
F0.06217994319171993
sI498
F0.5
sI500
F0.5
sI502
F0.013518801935003582
sI508
F0.731397981006667
sI513
F0.4950005269669696
sI514
F0.48641860810982623
sI516
F0.499905
sI518
F0.5
sI520
F0.004363981784043855
sI522
F0.5
sI524
F0.5
sI527
F0.5
sI528
F0.5
sI529
F0.4682884605867339
sI532
F0.36450000000000005
sI534
F0.5
sI535
F0.7608515499999999
sI544
F0.021645306526943874
sI550
F0.013595713477606478
sI552
F0.5
sI553
I0
sI567
F0.47800231939603677
sI568
F0.4366241474906048
sI570
F0.48969776745000004
sI572
F0.45
sI574
F0.36450000000000005
sI576
F0.5
sI578
F0.5
sI581
F0.5
sI582
F0.5
sI583
F0.0007989883149230291
sI586
F0.010240258968460349
sI588
F0.46
sI589
F0.7847663949999999
sI594
F0.5
sI596
F0.4430472089295589
sI599
F0.40454856700108965
sI600
F0.5
sI601
F0.5
sI605
F0.495
sI609
F0.5
sI611
F0.45
sI612
F0.5
sI613
F0.5
sI615
F0.5
sI617
F0.34518150000000003
sI619
F0.32805000000000006
sI622
F0.36450000000000005
sI624
F0.45
sI625
F0.48645
sI630
F0.5
sI631
F0.5
sI633
F0.5
sI635
F0.5
sI637
F0.00047760366002280226
sI643
F0.0015216263610852265
sI652
F0.44179067085835505
sI658
F0.005292152268857955
sI660
F0.45
sI661
I0
sI676
F0.36450000000000005
sI678
F0.49962195
sI679
F0.495
sI684
F0.5
sI685
F0.5
sI687
F0.5
sI689
F0.5
sI691
F0.36450000000000005
sI697
F0.5
sI729
F0.46805406309157216
sI731
F0.4637137933757307
sI734
F0.5030446949999999
sI735
F0.46164508246768393
sI736
F0.4826672799988947
sI740
F0.496
sI744
F0.4882019269683439
sI746
F0.45
sI747
F0.4629709801019278
sI748
F0.3678884025195039
sI750
F0.5
sI752
F0.5
sI754
F0.32805000000000006
sI758
F0.5005
sI762
F0.5
sI764
F0.505
sI773
F0.5
sI774
F0.5
sI776
F0.5
sI779
F0.5
sI780
F0.5
sI781
I0
sI783
F0.4608806057173256
sI784
F0.5077310713446382
sI786
F0.4999545
sI788
F0.499545
sI790
F0.45380195302555304
sI792
F0.50212819
sI794
F0.45
sI797
F0.5
sI798
F0.4545
sI799
F0.5
sI802
F0.32220706807383004
sI804
F0.5
sI805
F0.5095569860077869
sI812
F0.5028589
sI816
F0.42753292923089603
sI818
F0.405
sI827
I0
sI828
F0.5
sI830
F0.5057515
sI833
F0.496405
sI834
F0.3984074614564957
sI835
F0.32154111205150915
sI845
F0.5
sI857
F0.55
sI861
F0.5
sI863
F1.0
sI864
F0.495
sI866
F0.45
sI869
F0.5
sI870
F0.36715720500000004
sI871
F0.37181177316450004
sI875
I0
sI879
I0
sI882
F0.5
sI883
F0.5021080311599999
sI885
F0.5
sI887
F0.45
sI889
F0.263833605
sI891
F0.46345789959307804
sI892
F0.20058718008975632
sI894
F0.50095
sI896
F0.5
sI898
F0.16752806227480502
sI900
F0.5004495
sI902
F0.505
sI905
F0.55
sI906
F0.49397151034578146
sI907
F0.87290670858355
sI910
F0.17433922005
sI912
F0.5
sI913
F0.4916410529241406
sI918
F0.5047055547535884
sI920
F0.5252487134423159
sI923
F0.5950000000000001
sI924
F0.45
sI925
I0
sI929
F0.55
sI933
F0.55
sI935
F0.5
sI936
F0.45
sI937
I0
sI939
F0.5
sI941
F0.5
sI946
F0.17963083427974316
sI948
F0.5
sI949
F0.704755
sI954
F0.51314095
sI955
F0.704755
sI957
F0.55
sI959
F0.5
sI961
F0.5
sI967
F0.5108665834615964
sI974
F0.5
sI978
F0.5
sI980
F0.5
sI989
F0.495
sI990
F0.5
sI992
F0.5
sI995
F0.5
sI996
F0.5
sI997
F0.5
sI1007
F0.55
sI1019
F0.5
sI1023
F0.5
sI1025
F1.0
sI1026
F0.500005
sI1028
F0.5
sI1031
F0.5
sI1032
F0.5
sI1033
F0.49961205000000003
sI1037
F0.5
sI1041
F0.495
sI1043
F0.5
sI1044
F0.5
sI1045
F0.5
sI1047
F0.5
sI1049
F0.5
sI1051
F0.498195
sI1061
F0.5
sI1073
F0.55
sI1077
F0.5
sI1079
F1.0
sI1109
F0.49654782
sI1113
F0.5
sI1115
F0.5
sI1124
I0
sI1125
F0.5
sI1127
F0.50089995
sI1130
F0.474255
sI1131
F0.505
sI1132
F0.5
sI1134
F0.5
sI1136
F0.5
sI1139
F0.5
sI1140
F0.5
sI1141
F0.7608515499999999
sI1145
F0.55
sI1149
F0.5
sI1151
F0.5
sI1152
F0.5
sI1153
F0.37215620070061833
sI1155
F0.5
sI1157
F0.5
sI1159
F0.29524500000000004
sI1163
F0.5950000000000001
sI1167
F0.55
sI1169
F0.5
sI1178
F0.5
sI1179
F0.495
sI1181
F0.5
sI1184
F0.5
sI1185
F0.5
sI1186
I0
sI1188
F0.5
sI1189
F0.1493806459805463
sI1191
F0.5
sI1193
F0.5
sI1195
F0.12932695954820456
sI1197
F0.49995
sI1199
F0.5
sI1202
F0.5
sI1203
F0.5
sI1204
F0.6355000000000001
sI1207
F0.13715862506055843
sI1209
F0.5
sI1210
F0.04295257982025134
sI1215
F0.46257461345412776
sI1216
F0.42122436249342776
sI1218
F0.49995
sI1220
F0.499995
sI1222
F0.368145
sI1224
F0.5
sI1226
F0.5
sI1229
F0.5
sI1230
F0.45
sI1231
F0.4132791220085375
sI1234
F0.32805000000000006
sI1236
F0.5
sI1237
F0.7608515499999999
sI1242
F0.491553412757042
sI1244
F0.49622250574296
sI1247
F0.50095
sI1248
F0.45
sI1249
I0
sI1253
F0.49360422600000003
sI1257
F0.5
sI1259
F0.45
sI1260
F0.45
sI1261
I0
sI1263
F0.5
sI1265
F0.5
sI1270
F0.37881384145513447
sI1272
F0.4995
sI1273
F0.55
sI1278
F0.5
sI1279
F0.55
sI1281
F0.5
sI1283
F0.5
sI1285
F0.32805000000000006
sI1291
F0.53562295
sI1296
F0.5
sI1298
F0.5
sI1301
F0.5
sI1302
F0.405
sI1303
F0.5
sI1307
I0
sI1311
I0
sI1314
F0.5
sI1315
F0.6355000000000001
sI1317
F0.55
sI1319
F0.5
sI1321
F0.23914845
sI1325
F0.495
sI1329
F0.5
sI1331
F0.5
sI1340
I0
sI1341
F0.5
sI1343
F0.5
sI1346
F0.5950000000000001
sI1347
F0.5
sI1348
I0
sI1350
F0.5
sI1351
F0.314173127060488
sI1353
F0.495
sI1355
F0.45
sI1357
F0.23914845
sI1359
I0
sI1364
I0
sI1366
I0
sI1369
F0.24697349955000003
sI1371
F0.5
sI1372
F0.6355000000000001
sI1378
F0.17433922005
sI1380
F0.5
sI1381
F0.5
sI1386
F0.5
sI1387
F0.5
sI1389
F0.5
sI1391
F0.5
sI1393
F0.33694015499999996
sI1399
F0.32805000000000006
sI1404
F0.32805000000000006
sI1405
I0
sI1407
F0.5
sI1409
F0.5
sI1413
F0.5
sI1415
F0.5080500000000001
sI1418
F0.55
sI1419
F0.5
sI1420
I0
sI1425
F0.5
sI1426
I0
sI1435
F1.0
sI1441
F1.0
sI1443
F1.0
sI1459
F0.18227433949138927
sI1461
F0.45311756194929326
sI1462
F0.08943915865475915
sI1467
F0.45546666606597425
sI1468
F0.37120103599571463
sI1470
F0.495
sI1472
F0.5
sI1474
F0.32005534242889616
sI1480
F0.0508155006541148
sI1485
F0.49379638014
sI1486
F0.7122510321356204
sI1488
F0.5
sI1490
F0.50005
sI1492
F0.03768721975853295
sI1494
F0.5
sI1496
F0.5
sI1499
F0.5
sI1500
F0.5
sI1501
F0.6067717842460884
sI1504
F0.39962512975883496
sI1506
F0.5
sI1507
F0.9951511313510624
sI1516
F0.04772952474193605
sI1522
F0.32805000000000006
sI1524
F0.5
sI1525
I0
sI1539
F0.4807401951686095
sI1540
F0.4215542952153296
sI1542
F0.5
sI1544
F0.45
sI1546
F0.3725919
sI1548
F0.5008589999999999
sI1550
F0.5096408422950001
sI1553
F0.55
sI1554
F0.5
sI1555
F0.49540656501
sI1558
F0.02863264986334957
sI1560
F0.45
sI1561
F0.0433889428844949
sI1566
F0.4887297855
sI1568
F0.405
sI1571
F0.5
sI1572
F0.45
sI1573
F0.017828998014136996
sI1577
F0.48641355000000003
sI1581
F0.5
sI1583
F0.45
sI1584
F0.45
sI1585
F0.3199001717651904
sI1587
F0.5
sI1589
F0.5
sI1591
F0.0008086546349614939
sI1594
F0.32639039504999995
sI1596
F0.5
sI1597
F0.4673295
sI1602
F0.5
sI1603
F0.5
sI1605
F0.5
sI1607
F1.0
sI1609
F0.44955
sI1615
F3.9011796413948525e-05
sI1624
F0.03063356659045664
sI1630
F0.013963274765885648
sI1632
F0.45
sI1633
I0
sI1648
F0.7397101392304687
sI1650
F0.501921
sI1651
F0.9324574141163504
sI1656
F0.5
sI1657
F0.7473841954712024
sI1659
F0.490905
sI1661
F0.4995
sI1663
F0.8017710346239115
sI1669
F1.0
sI1701
F0.4936106092160609
sI1702
F0.5040980186152867
sI1704
F0.502444
sI1706
F0.5
sI1708
F0.496935
sI1710
F0.5005
sI1712
F0.405
sI1715
F0.5
sI1716
F0.45
sI1717
F0.499905
sI1720
F0.445508810485425
sI1722
F0.5095000000000001
sI1723
F0.9979127210410353
sI1728
F0.5171823292557002
sI1730
F0.45
sI1733
F0.5005
sI1734
F0.50041060318
sI1735
F0.6162551543043193
sI1739
F0.5
sI1743
F0.5
sI1745
F0.5
sI1746
F0.32805000000000006
sI1747
F0.5
sI1749
F0.55
sI1751
F0.5
sI1753
F0.45
sI1756
F0.49199886
sI1758
F0.5
sI1759
F0.49533363090849836
sI1764
F0.5
sI1765
F0.5
sI1767
F0.5
sI1769
F1.0
sI1771
F0.405
sI1777
F0.4992070100944259
sI1782
F0.495847847102445
sI1784
F0.45
sI1787
F0.5
sI1788
F0.44955
sI1789
F0.5
sI1793
F0.55
sI1797
F0.495
sI1799
F0.45
sI1800
F0.45
sI1801
F0.33659307317925
sI1803
F0.5
sI1805
F0.5
sI1807
F0.215233605
sI1811
I0
sI1815
I0
sI1826
I0
sI1827
I0
sI1832
I0
sI1834
I0
sI1836
F0.49941947102445
sI1837
F0.49860471024450004
sI1839
F0.5
sI1841
F1.0
sI1843
F0.405
sI1845
F0.5
sI1847
F1.0
sI1851
F0.5
sI1852
F0.5
sI1855
F0.215233605
sI1857
F0.5
sI1858
F0.4470701009442592
sI1864
F0.4927938345
sI1866
F0.5
sI1867
F0.5950000000000001
sI1872
F0.45
sI1873
F0.45843934499999994
sI1875
F0.5
sI1877
F0.5
sI1879
F0.405
sI1885
F1.0
sI1890
F0.5518469404758212
sI1891
F0.9249526823515004
sI1893
F0.55
sI1895
F0.505
sI1897
F0.7730874320207348
sI1899
F0.5839820383250129
sI1901
F0.45
sI1904
F0.5
sI1905
F0.405
sI1906
F0.9951511313510624
sI1909
F1.0
sI1911
F1.0
sI1921
F0.45
sI1927
F0.32805000000000006
sI1929
F0.5
sI1930
I0
sI1948
F0.051234952187566296
sI1954
F0.08454141261414692
sI1956
F0.5
sI1957
I0
sI1972
F0.47479256978288903
sI1974
F0.49905
sI1975
F0.4905
sI1980
F0.5
sI1981
F0.431192792643637
sI1983
F0.5
sI1985
F0.5
sI1987
F0.37673686100102327
sI1993
F0.5
sI2026
F0.36450000000000005
sI2028
F0.45
sI2029
F0.495
sI2034
F0.5
sI2035
F0.454556286
sI2037
F0.5
sI2039
F0.5
sI2041
F0.0004693289519584903
sI2047
F5.2050744188282034e-05
sI2052
F0.5001032700000001
sI2053
F0.5
sI2055
F0.5
sI2057
F0.36450000000000005
sI2059
F0.005994259948828873
sI2061
F0.5007730499999999
sI2063
F0.4995
sI2066
F0.495
sI2067
F0.4995
sI2068
F0.39340185745500006
sI2071
F0.23380524449999998
sI2073
F0.5
sI2074
F0.9933486026763544
sI2083
F0.36450000000000005
sI2089
F0.36450000000000005
sI2091
F0.5
sI2092
I0
sI2137
F0.45
sI2143
F0.32805000000000006
sI2145
F0.45
sI2146
I0
sI2187
F0.49514063360532323
sI2189
F0.4920497369163425
sI2192
F0.5049058361195617
sI2193
F0.49500245387189556
sI2194
F0.4984931082190859
sI2198
F0.4999995
sI2202
F0.4999503939345
sI2204
F0.499995
sI2205
F0.48814019209133647
sI2206
F0.49682128690367133
sI2208
F0.5059096496474068
sI2210
F0.449145
sI2212
F0.48915669024717723
sI2216
F0.5
sI2220
F0.5
sI2222
F0.5
sI2231
F0.49995
sI2232
F0.5005
sI2234
F0.5
sI2237
F0.4905
sI2238
F0.5
sI2239
F0.495
sI2241
F0.49237086656677603
sI2242
F0.5039767869524324
sI2244
F0.5
sI2246
F0.405
sI2248
F0.4963788763912914
sI2250
F0.5
sI2252
F0.5
sI2255
F0.5
sI2256
F0.499953939345
sI2257
F0.49953939345000004
sI2260
F0.491655105
sI2262
F0.45
sI2263
F0.6313263769656455
sI2270
F0.5005
sI2274
F0.5
sI2276
F0.505
sI2285
F0.5
sI2286
F0.5
sI2288
F0.5
sI2291
I0
sI2292
F0.5
sI2293
F0.45739416227280644
sI2303
F0.5
sI2315
F0.5
sI2319
F0.5
sI2321
F1.0
sI2322
F0.4891582828506021
sI2324
F0.45
sI2327
I0
sI2328
F0.49730800228692923
sI2329
F0.4880547905880819
sI2333
F0.5
sI2337
F0.5
sI2339
F0.5
sI2340
F0.45
sI2341
F0.4645845
sI2343
I0
sI2347
F0.37260000000000004
sI2349
F0.49258220942956926
sI2350
F0.45439863943522146
sI2352
F0.5005
sI2354
F0.5153036100545385
sI2356
F0.4122738889423172
sI2358
F0.50014294345
sI2360
F0.5
sI2363
F0.55
sI2364
F0.5
sI2365
F0.030664292446856437
sI2368
F0.4430855226084062
sI2370
F0.5188096765486844
sI2371
F0.8970544339526756
sI2376
F0.49511310131298875
sI2378
F0.48871432876622417
sI2381
F0.55
sI2382
F0.49082842061041665
sI2383
F0.5236071981763055
sI2387
F0.5
sI2391
F0.4978000226933199
sI2393
F0.5
sI2394
F0.48722868495
sI2395
F0.6355000000000001
sI2397
F0.55
sI2399
F0.5
sI2401
F0.5
sI2404
F0.44452634374109967
sI2406
F0.5
sI2407
F0.6355000000000001
sI2412
F0.5
sI2413
F0.5950000000000001
sI2415
F0.5
sI2417
F0.5
sI2419
F0.006901042838821642
sI2425
F0.743441106357635
sI2432
F0.5
sI2436
F0.4999995
sI2438
F0.5
sI2447
F0.5
sI2448
F0.499905
sI2450
F0.5
sI2453
F0.5
sI2454
F0.5
sI2455
F0.5
sI2465
F0.5
sI2477
F0.5
sI2481
F0.5
sI2483
F1.0
sI2484
F0.5005
sI2486
F0.5
sI2489
F0.5
sI2490
F0.5
sI2491
F0.5
sI2495
F0.5
sI2499
F0.5
sI2501
F0.5
sI2502
F0.5
sI2503
F0.5
sI2505
F0.5
sI2507
F0.5
sI2509
F0.5
sI2519
F0.5
sI2531
F0.5
sI2535
F0.5
sI2537
F1.0
sI2567
F0.5950000000000001
sI2571
F0.5
sI2573
F0.5
sI2582
F0.5
sI2583
F0.5
sI2585
F0.5
sI2588
I0
sI2589
F0.5
sI2590
F0.5
sI2592
F0.5017029133500001
sI2594
F0.5
sI2597
F0.55
sI2598
F0.5
sI2599
F0.4572980481315279
sI2603
F0.5
sI2607
F0.5
sI2609
F0.5
sI2610
F0.5
sI2611
F0.5950000000000001
sI2613
F0.55
sI2615
F0.5
sI2617
F0.40896739001378896
sI2621
F0.5950000000000001
sI2625
F0.503065
sI2627
F0.5
sI2636
F0.5
sI2637
F0.55
sI2639
F0.5
sI2642
F0.5
sI2643
F0.5180500000000001
sI2644
F0.67195
sI2646
F0.5
sI2647
F0.41304573562256974
sI2649
F0.5
sI2651
F0.5
sI2653
F0.3536296066920281
sI2655
F0.5
sI2657
F0.5
sI2660
F0.5
sI2661
F0.5
sI2662
F1.559868727262732e-08
sI2665
F0.3714522804010504
sI2667
F0.5
sI2668
F0.87290670858355
sI2673
F0.49308171571855586
sI2674
F0.5032681439852863
sI2676
F0.502995901296195
sI2678
F0.45
sI2680
F0.4957676238414913
sI2682
F0.5
sI2684
F0.5
sI2687
F0.5
sI2688
F0.5
sI2689
F0.47543457202153316
sI2692
F0.49136287999500006
sI2694
F0.45
sI2695
F0.7608515499999999
sI2700
F0.5
sI2702
F0.5
sI2705
F0.5
sI2706
F0.5
sI2707
F0.5
sI2711
F0.5
sI2715
F0.5
sI2717
F0.5
sI2718
F0.5
sI2719
F0.5
sI2721
F0.5
sI2723
F0.45
sI2725
F0.5
sI2728
F0.49228340692095
sI2730
F0.5
sI2731
F0.55
sI2736
F0.5
sI2737
F0.55
sI2739
F0.5
sI2741
F0.5
sI2743
F0.4480438367380907
sI2749
F0.405
sI2754
F0.48949331028752185
sI2756
F0.45
sI2759
I0
sI2760
F0.4984664147845583
sI2761
F0.5
sI2765
F0.5
sI2769
F0.498350799809361
sI2771
F0.5
sI2772
F0.45
sI2773
F0.5
sI2775
I0
sI2779
F0.36450000000000005
sI2783
F0.49486637745
sI2787
F0.5
sI2789
F0.5012567550000001
sI2798
F0.470205
sI2799
F0.5
sI2801
F0.45
sI2804
I0
sI2805
F0.5
sI2806
F0.5
sI2808
F0.45
sI2809
F0.44540041049999995
sI2811
I0
sI2815
F0.405
sI2817
F0.5
sI2819
F0.5
sI2822
I0
sI2823
F0.5
sI2824
F0.29655415141101094
sI2827
F0.32805000000000006
sI2830
I0
sI2836
F0.44396108916976396
sI2838
F0.516938270535
sI2839
F0.55
sI2844
F0.505
sI2845
F0.704755
sI2847
F0.55
sI2849
F0.5
sI2851
F0.007996662552952684
sI2857
F0.5095000000000001
sI2862
F0.4836872815393806
sI2863
F0.3615086095201485
sI2865
F0.5045411114999999
sI2867
F0.50709726
sI2869
F0.29524500000000004
sI2871
F0.5
sI2873
F0.5
sI2876
F0.55
sI2877
F0.4500002801644431
sI2878
F4.3525108892700833e-07
sI2881
F0.29862508950000005
sI2883
F0.5
sI2884
F0.55
sI2893
F1.0
sI2899
F1.0
sI2901
F1.0
sI2918
F0.4174013178302595
sI2922
F0.49589999999999995
sI2924
F0.36450000000000005
sI2933
F0.5
sI2934
F0.5
sI2936
F0.37260000000000004
sI2939
F0.495
sI2940
F0.4545
sI2941
F0.5
sI2951
F0.5
sI2963
F0.5
sI2967
F0.55
sI2969
F1.0
sI2970
F0.5
sI2972
F0.36450000000000005
sI2975
F0.5
sI2976
F0.5
sI2977
F0.495
sI2981
F0.5
sI2985
F0.5
sI2987
F0.5
sI2988
F0.5
sI2989
F0.5
sI2991
F0.5
sI2993
F0.5
sI2995
F0.45
sI3005
F0.55
sI3017
F0.5
sI3021
F0.55
sI3023
F1.0
sI3053
F0.5
sI3057
F0.5
sI3059
F0.5
sI3068
I0
sI3069
F0.5
sI3071
F0.5
sI3074
I0
sI3075
F0.5
sI3076
F0.486
sI3078
F0.49940233072351076
sI3080
F0.36450000000000005
sI3083
F0.55
sI3084
F0.405
sI3085
F0.5
sI3089
F0.5
sI3093
F0.48493455114147394
sI3095
F0.45
sI3096
F0.45
sI3097
F0.3757867885347267
sI3099
F0.5413512390155155
sI3101
F0.405
sI3103
F0.29524500000000004
sI3107
F0.6355000000000001
sI3111
F0.5
sI3113
F0.5
sI3122
F0.5
sI3123
F0.45604786049999996
sI3125
F0.405
sI3128
F0.5
sI3129
F0.405
sI3130
I0
sI3132
F0.405
sI3133
F0.704755
sI3135
F0.5
sI3137
F0.5
sI3139
F0.5
sI3141
F0.55
sI3143
F0.5
sI3146
F0.5
sI3147
F0.45
sI3148
F0.907348990557408
sI3151
F0.3258595505434243
sI3153
F0.5
sI3154
F0.9601167784615637
sI3167
F0.5
sI3179
F0.5
sI3183
F0.5
sI3185
F1.0
sI3215
F0.5
sI3219
F0.5
sI3221
F0.5
sI3230
F0.5
sI3231
F0.5
sI3233
F0.5
sI3236
F0.5
sI3237
F0.5
sI3238
F0.5
sI3302
F0.5
sI3314
F0.55
sI3318
F0.55
sI3320
F1.0
sI3323
F0.5
sI3327
F0.5
sI3329
F0.5
sI3338
F0.5
sI3339
F0.5
sI3341
F0.5
sI3344
F0.5
sI3345
F0.5
sI3346
F0.24408990288082083
sI3356
F0.5
sI3368
F0.5
sI3372
F0.5950000000000001
sI3374
F1.0
sI3375
F0.5
sI3377
F0.5
sI3380
F0.5
sI3381
F0.5
sI3382
F0.056825714050704676
sI3386
F0.5
sI3390
F0.5
sI3392
F0.5
sI3393
F0.5
sI3394
F0.12624369057633023
sI3396
F0.5
sI3398
F0.5
sI3400
F0.023550643486231218
sI3402
F0.5
sI3404
F0.404595
sI3407
F0.5
sI3408
F0.5
sI3409
F0.495
sI3413
F0.495
sI3417
F0.5
sI3419
F0.5
sI3420
F0.5
sI3421
F0.55
sI3423
F0.5
sI3425
F0.45
sI3427
F0.5
sI3431
F0.50095
sI3435
F0.5
sI3437
F0.5
sI3446
F0.5
sI3447
F0.5
sI3449
F0.5
sI3452
F0.5
sI3453
F0.5
sI3454
I0
sI3456
F0.5
sI3457
F0.55
sI3459
F0.5
sI3461
F0.5
sI3463
F0.45
sI3465
F0.5
sI3467
F0.45
sI3470
F0.5
sI3471
F0.5
sI3472
F0.55
sI3475
F0.5
sI3477
F0.5
sI3478
F0.5950000000000001
sI3485
F0.5
sI3489
F0.5
sI3491
F0.5
sI3500
I0
sI3501
F0.5
sI3503
F0.5
sI3506
I0
sI3507
F0.5
sI3508
F0.5
sI3518
F0.55
sI3530
F0.5
sI3534
F0.5
sI3536
F1.0
sI3537
F0.5
sI3539
F0.5
sI3542
I0
sI3543
F0.5
sI3544
F0.5
sI3548
I0
sI3552
I0
sI3555
F0.5
sI3556
F0.55
sI3558
I0
sI3562
F0.405
sI3564
F0.45
sI3565
F0.55
sI3567
F0.5950000000000001
sI3569
F0.5
sI3571
F0.5
sI3573
F0.55
sI3575
F0.5
sI3578
F0.5
sI3579
F0.45
sI3580
F0.8587852317595001
sI3583
F0.301806
sI3585
F0.405
sI3586
F0.55
sI3591
F0.5
sI3593
F0.5
sI3596
F0.5950000000000001
sI3597
F0.5
sI3598
I0
sI3602
F0.55
sI3606
F0.5
sI3608
F0.5
sI3609
F0.405
sI3610
I0
sI3612
F0.5
sI3614
F0.5
sI3619
F1.0
sI3621
F1.0
sI3627
F1.0
sI3632
F1.0
sI3634
F1.0
sI3640
F1.0
sI3645
F0.4918712848908861
sI3646
F0.48488290231793846
sI3648
F0.49215839499999997
sI3650
F0.45
sI3652
F0.47737954426050005
sI3654
F0.5
sI3656
F0.5
sI3659
F0.5
sI3660
F0.5
sI3661
F0.49974255
sI3664
F0.47620102770000006
sI3666
F0.45
sI3667
F0.9933486026763544
sI3672
F0.5
sI3674
F0.5
sI3677
F0.5
sI3678
F0.5
sI3679
F0.5914139997841735
sI3683
F0.5
sI3687
F0.5
sI3689
F0.4995
sI3690
F0.505
sI3691
F0.5
sI3693
F0.5
sI3695
F0.5
sI3697
F0.5
sI3700
F0.48070052235
sI3702
F0.45
sI3703
F0.486
sI3708
F0.5
sI3709
F0.5
sI3711
F0.5
sI3713
F1.0
sI3715
F0.4969414845
sI3721
F0.405
sI3726
F0.5
sI3728
F0.5
sI3731
I0
sI3732
F0.5
sI3733
F0.4263042555
sI3737
F0.55
sI3741
F0.5
sI3743
F0.5
sI3744
F0.5
sI3745
F0.431965566
sI3747
I0
sI3751
F0.32805000000000006
sI3755
F0.5
sI3759
F0.5
sI3761
F0.5
sI3770
F0.5
sI3771
F0.5
sI3773
F0.5
sI3776
I0
sI3777
F0.5
sI3778
F0.5
sI3780
F0.45
sI3781
F0.43519441049999996
sI3783
I0
sI3787
F0.29524500000000004
sI3789
F0.5
sI3791
F1.0
sI3795
F0.5
sI3796
F0.46941484499999997
sI3799
F0.32805000000000006
sI3802
I0
sI3808
F0.43769597190637227
sI3810
F0.5032
sI3811
F0.6355000000000001
sI3816
F0.5
sI3817
F0.35782145932384607
sI3819
F0.496
sI3821
F0.505
sI3823
F0.001557553448894555
sI3829
F1.0
sI3834
F0.49191663878945735
sI3835
F0.9166140915016672
sI3837
F0.55
sI3839
F0.5
sI3841
F0.6915718882573871
sI3843
F0.48095713228153775
sI3845
F0.4635395792539457
sI3848
F0.55
sI3849
F0.47305209961840494
sI3850
F0.025231540657641185
sI3853
F1.0
sI3855
F1.0
sI3865
F0.45
sI3871
F0.2657205
sI3873
F0.45
sI3874
I0
sI3888
F0.5
sI3890
F0.5
sI3893
F0.5
sI3894
F0.5
sI3895
F0.5005
sI3899
F0.5
sI3903
F0.5
sI3905
F0.5
sI3906
F0.5
sI3907
F0.5
sI3909
F0.55
sI3911
F0.5
sI3913
F0.505
sI3917
F0.5
sI3921
F0.5
sI3923
F0.5
sI3932
F0.5
sI3933
F0.5
sI3935
F0.5
sI3938
F0.5
sI3939
F0.5
sI3940
F0.5
sI3942
F0.505
sI3943
F0.5
sI3945
F0.5
sI3947
F1.0
sI3949
F0.5
sI3951
F0.5
sI3953
F1.0
sI3957
F0.5
sI3958
F0.5
sI3961
F0.5
sI3963
F0.5
sI3964
F0.5
sI3971
F0.5
sI3975
F0.5
sI3977
F0.5
sI3986
F0.5
sI3987
F0.5
sI3989
F0.5
sI3992
I0
sI3993
F0.5
sI3994
F0.5
sI4004
I0
sI4016
I0
sI4020
I0
sI4023
F0.5
sI4025
F1.0
sI4029
F0.5
sI4030
F0.5
sI4038
F0.5
sI4040
F1.0
sI4041
F0.5
sI4042
F0.5
sI4044
I0
sI4048
F0.45
sI4050
F0.5
sI4051
F0.55
sI4053
F0.55
sI4055
F0.5
sI4057
F0.4096925581103412
sI4059
F0.5
sI4061
F0.5
sI4064
F0.55
sI4065
F0.5
sI4066
F0.05759400408056941
sI4069
F1.0
sI4071
F1.0
sI4077
F0.5950000000000001
sI4079
F0.5
sI4082
F0.55
sI4083
F0.5
sI4084
F0.9452905054342439
sI4088
F0.55
sI4092
F0.486
sI4094
F0.45
sI4095
F1.0
sI4100
F1.0
sI4102
F1.0
sI4105
F0.3737748341057256
sI4107
F0.5
sI4108
F0.55
sI4113
F0.5
sI4114
F0.22710324995590775
sI4116
F0.5
sI4118
F1.0
sI4120
F7.489263629654158e-09
sI4126
F1.0
sI4132
F0.48054839247945
sI4134
F0.405
sI4135
F0.44324807445
sI4140
F0.5
sI4141
F0.490905
sI4143
F0.5
sI4145
F0.5
sI4147
F0.4576361518504791
sI4153
F0.36450000000000005
sI4158
F0.5
sI4159
F0.5
sI4161
F0.5
sI4163
F0.5
sI4165
F0.4995
sI4167
F0.5
sI4169
F0.5
sI4172
F0.5
sI4173
F0.5
sI4174
F0.4254250815
sI4177
F0.5
sI4179
F0.5
sI4180
F0.5
sI4189
F0.405
sI4195
F0.45
sI4197
F0.5
sI4198
I0
sI4212
F0.45
sI4213
F0.5
sI4215
I0
sI4219
F0.29524500000000004
sI4221
F0.5
sI4223
F0.5
sI4226
I0
sI4227
F0.48350799809361
sI4228
F0.3350799809361
sI4231
F0.3487950000000001
sI4234
I0
sI4239
F0.5
sI4241
F0.45
sI4244
I0
sI4245
F0.5
sI4246
F0.47385
sI4250
F0.5
sI4254
F0.5
sI4256
F0.405
sI4257
F0.5
sI4258
F0.5950000000000001
sI4260
I0
sI4264
F0.36450000000000005
sI4267
F0.32805000000000006
sI4270
I0
sI4275
F0.5
sI4276
F0.5
sI4278
I0
sI4282
F0.114383962274805
sI4297
F0.36450000000000005
sI4303
F0.24153993449999997
sI4305
F0.5
sI4306
I0
sI4321
F0.3271984305431745
sI4323
F0.4995
sI4324
F0.55
sI4329
F0.44461918814691265
sI4330
F0.15685515432945868
sI4332
F0.495
sI4334
F0.5
sI4336
F1.9630046385909056e-07
sI4342
F1.0
sI4375
F0.06348112677046185
sI4377
F0.49664270893145523
sI4378
F0.4889761738263753
sI4383
F0.4624845341651134
sI4384
F0.41265191628682846
sI4386
F0.5
sI4388
F0.5
sI4390
F0.33937104069938245
sI4396
F0.4792048939857388
sI4401
F0.4943878057931117
sI4402
F0.50373236452015
sI4404
F0.501805
sI4406
F0.5
sI4408
F0.003756663769890722
sI4410
F0.5
sI4412
F0.5
sI4415
F0.5
sI4416
F0.4995
sI4417
F0.6355000000000001
sI4420
F0.405
sI4422
F0.5
sI4423
F0.5
sI4432
F0.007878776373201179
sI4438
F0.32805000000000006
sI4440
F0.5
sI4441
I0
sI4455
F0.4789106813338112
sI4456
F0.44533864386910477
sI4458
F0.5
sI4460
F0.4995
sI4462
F0.36450000000000005
sI4464
F0.5
sI4466
F0.5
sI4469
F0.5
sI4470
F0.5
sI4471
F0.23563378570770127
sI4474
F0.018023585469446022
sI4476
F0.49940135155000004
sI4477
F0.4981085155
sI4482
F0.4859502705
sI4484
F0.405
sI4487
F0.5
sI4488
F0.45
sI4489
F0.495
sI4493
F0.5
sI4497
F0.495
sI4499
F0.5
sI4500
F0.45
sI4501
F0.495
sI4503
F0.5
sI4505
F0.5
sI4507
F0.36450000000000005
sI4510
F0.36450000000000005
sI4512
F0.5
sI4513
F0.495
sI4518
F0.5
sI4519
F0.5
sI4521
F0.5
sI4523
F0.45
sI4525
F0.17433922005
sI4531
F0.015190606827997659
sI4540
F0.23890930154999995
sI4546
F0.010904570796937688
sI4548
F0.45
sI4549
I0
sI4564
F0.34157295
sI4566
F0.5
sI4567
F0.5
sI4572
F0.5
sI4573
F0.6355000000000001
sI4575
F0.5
sI4577
F0.5
sI4579
F1.0
sI4585
F0.5
sI4617
F0.49359270839726693
sI4618
F0.5043751347149998
sI4620
F0.5
sI4622
F0.5
sI4624
F0.49586943734549993
sI4626
F0.50095
sI4628
F0.405
sI4631
F0.5
sI4632
F0.5
sI4633
F0.55
sI4636
F0.44901450274488075
sI4638
F0.5
sI4639
F0.50339305
sI4644
F0.5
sI4646
F0.45
sI4649
F0.5
sI4650
F0.45
sI4651
F0.5950000000000001
sI4655
F0.5
sI4659
F0.5
sI4661
F0.5
sI4662
F0.45
sI4663
F0.5
sI4665
F0.5
sI4667
F0.5
sI4669
F0.45
sI4672
F0.49193325000000004
sI4674
F0.5
sI4675
F0.5
sI4680
F0.5
sI4681
F0.5
sI4683
F0.5
sI4685
F0.5
sI4687
F0.45
sI4693
F0.49905
sI4698
F0.48847418221868993
sI4700
F0.45
sI4703
F0.5
sI4704
F0.45
sI4705
F0.45438934499999994
sI4709
F0.5
sI4713
F0.5
sI4715
F0.5
sI4716
F0.4545
sI4717
F0.3662320329895706
sI4719
F0.5
sI4721
F0.5
sI4723
F0.19564734694499997
sI4727
I0
sI4731
I0
sI4742
I0
sI4743
I0
sI4748
I0
sI4750
I0
sI4752
F0.4851107718749999
sI4753
F0.4998645
sI4755
F0.5
sI4757
F0.5
sI4759
F0.405
sI4761
F0.45199786049999996
sI4763
F0.405
sI4766
F0.5
sI4767
F0.405
sI4768
F0.5
sI4771
F0.17607830348631415
sI4773
F0.5
sI4774
F0.2713427807169681
sI4780
F0.5030313697462087
sI4782
F0.5
sI4783
F0.467352414501646
sI4788
F0.45
sI4789
F0.7608515499999999
sI4791
F0.5
sI4793
F0.5
sI4795
F1.0
sI4801
F0.43133266432570505
sI4806
F0.5
sI4807
F0.55
sI4809
F0.5
sI4811
F0.5
sI4813
F1.0
sI4815
F0.5
sI4817
F0.5
sI4820
F0.5
sI4821
F1.0
sI4825
F0.5
sI4827
F0.5
sI4828
F0.55
sI4837
F0.32805000000000006
sI4843
F0.5
sI4845
F0.5
sI4846
I0
sI4864
F0.405
sI4870
F0.012997804933005945
sI4872
F0.5
sI4873
I0
sI4888
F0.44955
sI4890
F0.5
sI4891
F0.5
sI4896
F0.5
sI4897
F0.5
sI4899
F0.5
sI4901
F0.5
sI4903
F0.405
sI4909
F0.5
sI4942
F0.32805000000000006
sI4944
F0.486968355
sI4945
F0.4540941
sI4950
F0.5
sI4951
F0.4905
sI4953
F0.5
sI4955
F0.5
sI4957
F0.000495882088848073
sI4963
F0.405
sI4968
F0.49738499999999997
sI4969
F0.5
sI4971
F0.5
sI4973
F0.36518410664174145
sI4975
F0.45
sI4977
F0.5
sI4979
F0.5
sI4982
F0.47385
sI4983
F0.5
sI4984
F0.4795245
sI4987
F0.45
sI4989
F0.5
sI4990
F0.5
sI4999
F0.36450000000000005
sI5005
F0.45
sI5007
F0.5
sI5008
I0
sI5053
F0.5
sI5059
F0.5
sI5061
F0.5
sI5062
I0
sI5103
F0.3466774232055671
sI5104
F0.010517962156001147
sI5106
F0.5
sI5108
F0.5
sI5110
F0.008849375213476512
sI5112
F0.5
sI5114
F0.5
sI5117
F0.5
sI5118
F0.45
sI5119
F0.5950000000000001
sI5122
F0.008969811527756721
sI5124
F0.5
sI5125
F0.4456804921556913
sI5130
F0.49995
sI5132
F0.5
sI5135
F0.5
sI5136
F0.5
sI5137
I0
sI5141
F0.5
sI5145
F0.5
sI5147
F0.5
sI5148
F0.5
sI5149
I0
sI5151
F0.5
sI5153
F0.5
sI5158
F0.00921571226630631
sI5160
F0.5
sI5161
F0.4649188025863512
sI5166
F0.5
sI5167
F0.004138309941139097
sI5169
F0.5
sI5171
F0.5
sI5173
F0.002321029975996996
sI5179
F0.3996986075147734
sI5184
F0.5
sI5186
F0.5
sI5189
F0.495
sI5190
F0.368145
sI5191
F0.4905
sI5195
I0
sI5199
I0
sI5202
F0.5
sI5203
F0.48195
sI5205
F0.5005
sI5207
F0.4995
sI5209
F0.23914845
sI5213
F0.5
sI5217
F0.5
sI5219
F0.5
sI5228
I0
sI5229
F0.5
sI5231
F0.5
sI5234
F0.5
sI5235
F0.5
sI5236
I0
sI5238
F0.5
sI5239
F0.4202313939
sI5241
F0.5
sI5243
F0.5
sI5245
F0.23914845
sI5247
I0
sI5252
I0
sI5254
I0
sI5257
F0.32805000000000006
sI5259
F0.5
sI5260
F0.347464307334195
sI5266
F0.008159899792376296
sI5268
F0.499995
sI5269
F0.48195
sI5274
F0.5
sI5275
F0.7342795
sI5277
F0.5
sI5279
F0.5
sI5281
F1.0
sI5287
F0.32805000000000006
sI5292
F0.405
sI5293
I0
sI5295
F0.5
sI5297
F0.5
sI5301
F0.5
sI5303
F0.5
sI5306
F0.5
sI5307
F1.0
sI5313
F0.5
sI5314
I0
sI5323
F0.40170087
sI5329
F0.0023046692512285385
sI5331
F0.5
sI5332
I0
sI5346
F0.4999995
sI5348
F0.5
sI5351
F0.5
sI5352
F0.5
sI5353
F0.55
sI5357
F0.5
sI5361
F0.5
sI5363
F0.5
sI5364
F0.5
sI5365
F0.5
sI5367
F0.5
sI5369
F0.5
sI5371
F0.5
sI5375
F0.5
sI5379
F0.5
sI5381
F0.5
sI5390
F0.5
sI5391
F0.5
sI5393
F0.5
sI5396
F0.5
sI5397
F0.5
sI5398
I0
sI5400
F0.499995
sI5401
F0.5005845
sI5403
F0.5
sI5405
F0.5
sI5407
F0.49815
sI5409
F0.5
sI5411
F0.5
sI5414
F0.5
sI5415
F0.5
sI5416
F0.704755
sI5419
F0.5
sI5421
F0.5
sI5422
F0.5
sI5429
F0.5
sI5433
F0.495
sI5435
F0.45
sI5444
I0
sI5445
F0.5
sI5447
F0.5
sI5450
F0.5
sI5451
F0.5
sI5452
F0.495
sI5462
I0
sI5474
I0
sI5478
I0
sI5481
F0.49995
sI5483
F0.45
sI5486
F0.5
sI5487
F0.5
sI5488
F0.486
sI5492
I0
sI5496
I0
sI5499
F0.4995
sI5500
F0.495
sI5502
F0.5
sI5504
F0.405
sI5506
F0.405
sI5508
F0.50005
sI5509
F0.67195
sI5511
F0.5005
sI5513
F0.5
sI5515
F1.0
sI5517
F0.5
sI5519
F0.5
sI5522
F0.5
sI5523
F1.0
sI5527
F0.29524500000000004
sI5529
F0.5
sI5530
F0.32008680801179995
sI5535
F0.5
sI5537
F0.5
sI5540
F0.5
sI5541
F1.0
sI5546
F0.5
sI5552
F1.0
sI5553
F0.5
sI5554
I0
sI5556
F0.5
sI5558
F0.5
sI5563
F0.13325961539657472
sI5565
F0.5
sI5566
F0.046197528134612045
sI5571
F0.5
sI5572
F0.704755
sI5574
F0.5
sI5576
F0.5
sI5578
F1.0
sI5584
F0.005986257591281009
sI5590
F0.009413596443985435
sI5592
F0.5
sI5593
F0.48195
sI5598
F0.5
sI5599
F0.5005
sI5601
F0.5
sI5603
F0.5
sI5605
F0.32805000000000006
sI5611
F0.36450000000000005
sI5616
F0.405
sI5617
I0
sI5619
F0.5
sI5621
F0.5
sI5625
F0.5
sI5627
F0.45
sI5630
F0.5
sI5631
F0.5
sI5632
I0
sI5637
F0.5
sI5638
I0
sI5647
F0.405
sI5653
F0.002227054598578678
sI5655
F0.5
sI5656
I0
sI5670
F0.5
sI5671
F0.48195
sI5673
F0.5
sI5675
F0.45
sI5677
F0.405
sI5679
I0
sI5684
I0
sI5686
I0
sI5689
F0.36450000000000005
sI5691
F0.505
sI5692
F0.55
sI5697
F0.5
sI5699
F0.5
sI5702
F0.2665307859714453
sI5703
F0.5
sI5704
I0
sI5708
I0
sI5712
I0
sI5715
F0.5
sI5716
I0
sI5718
F0.5
sI5720
F0.17433922005
sI5725
F0.23914845
sI5727
F0.5
sI5728
F0.5
sI5734
I0
sI5736
I0
sI5746
F0.215233605
sI5755
F0.405
sI5761
F0.505
sI5763
F0.5
sI5764
I0
sI5781
F0.5
sI5782
I0
sI5787
F0.5
sI5788
I0
sI5790
F0.5
sI5792
F0.5
sI5836
F0.018743622834099163
sI5842
F0.2716254
sI5844
F0.5
sI5845
I0
sI5860
F0.5084607089305
sI5862
F0.5
sI5863
F0.67195
sI5868
F0.5
sI5869
F0.55
sI5871
F0.5
sI5873
F0.5
sI5875
F0.5
sI5881
F0.5180500000000001
sI5914
F0.29864845
sI5916
F0.5
sI5917
F0.5
sI5922
F0.4995
sI5923
F0.5
sI5925
F0.5
sI5927
F0.5
sI5929
F0.156905298045
sI5935
F0.005791495585201234
sI5940
F0.45
sI5941
F0.5950000000000001
sI5943
F0.5
sI5945
F0.5
sI5947
F0.0005873197715042943
sI5949
F0.5
sI5951
F0.45
sI5954
F0.5
sI5955
F0.5
sI5956
F0.55
sI5959
F0.23914845
sI5961
F0.5
sI5962
F0.67195
sI5971
F0.405
sI5977
F0.5
sI5979
F0.5
sI5980
I0
sI6025
F0.505
sI6031
F0.39160000000000006
sI6033
F0.5
sI6034
I0
sI6076
F0.49794750000000004
sI6078
F0.5
sI6079
F0.5950000000000001
sI6084
F0.5
sI6085
F0.55
sI6087
F0.5
sI6089
F0.5
sI6091
F0.5
sI6097
F0.5221
sI6102
F0.45
sI6103
F0.55
sI6105
F0.5
sI6107
F0.5
sI6109
F0.45
sI6111
F0.5
sI6113
F0.5
sI6116
F0.5
sI6117
F0.5
sI6118
F0.5
sI6121
F0.5
sI6123
F0.5
sI6124
F0.5950000000000001
sI6133
F0.5
sI6139
F0.5
sI6141
F0.5
sI6142
I0
sI6156
F0.45
sI6157
F0.55
sI6159
F0.5
sI6161
F0.5
sI6163
F0.405
sI6165
F0.5
sI6167
F0.5
sI6170
F0.5
sI6171
F0.5
sI6172
F0.5
sI6175
F0.1937102445
sI6177
F0.5
sI6178
F0.7847663949999999
sI6183
I0
sI6188
I0
sI6190
I0
sI6194
I0
sI6198
I0
sI6202
I0
sI6204
I0
sI6211
F0.45
sI6213
F0.5
sI6214
F0.5
sI6219
F0.36450000000000005
sI6220
F0.5
sI6222
F0.5
sI6224
F1.0
sI6226
F0.5
sI6232
F0.08338590849833284
sI6241
F0.405
sI6247
F0.405
sI6249
F0.5
sI6250
I0
sI6265
F0.5
sI6267
F0.5
sI6268
F0.5
sI6273
F0.45
sI6274
F0.5
sI6276
F0.5
sI6278
F0.5
sI6280
F1.0
sI6286
F1.0
sI6349
F0.45
sI6355
F0.36450000000000005
sI6357
F0.5
sI6358
I0
sI6403
F0.405
sI6409
F0.368145
sI6411
F0.5
sI6412
I0
sI6427
F0.5
sI6429
F0.5
sI6430
F0.5
sI6435
F0.504
sI6436
F0.55
sI6438
F0.55
sI6440
F0.405
sI6442
F0.2657205
sI6448
F0.32805000000000006
sI6561
F0.47793421715215745
sI6563
F0.4730651542125114
sI6566
F0.5010409349999999
sI6567
F0.4736725127786584
sI6568
F0.35426317018069486
sI6572
F0.44648645174134177
sI6576
F0.495
sI6578
F0.29524500000000004
sI6579
F0.44631544401074613
sI6580
F0.07222767599229928
sI6582
F0.4999995
sI6584
F0.5
sI6586
F0.07120784898075831
sI6590
F0.5014
sI6594
F0.5
sI6596
F0.5095000000000001
sI6605
F0.5
sI6606
F0.5
sI6608
F0.5
sI6611
F0.5
sI6612
F0.5
sI6613
F0.48195
sI6615
F0.47525079165869255
sI6616
F0.45832097567982943
sI6618
F0.5
sI6620
F0.5011029
sI6622
F0.2657205
sI6624
F0.5
sI6626
F0.405
sI6629
F0.55
sI6630
F0.4974255
sI6631
F0.25953546182984755
sI6634
F0.018623063847462113
sI6636
F0.5
sI6637
F0.5967325470007696
sI6644
F0.502065
sI6648
F0.5
sI6650
F0.5080500000000001
sI6659
F0.495
sI6660
F0.5
sI6662
F0.5
sI6665
F0.5
sI6666
F0.5
sI6667
I0
sI6677
F0.5
sI6689
F0.5
sI6693
F0.5
sI6695
F1.0
sI6696
F0.5
sI6698
F0.5
sI6701
F0.5
sI6702
F0.5
sI6703
I0
sI6707
F0.5
sI6711
F0.5
sI6713
F0.45
sI6714
F0.5
sI6715
I0
sI6717
F0.5
sI6719
F0.5
sI6723
F0.44876792849486025
sI6724
F0.05702020256082811
sI6726
F0.5004145
sI6728
F0.4995
sI6730
F0.037735202404413935
sI6732
F0.5
sI6734
F0.405
sI6737
F0.5
sI6738
F0.5
sI6739
F0.996818657279432
sI6742
F0.005074082399538288
sI6744
F0.5
sI6745
F0.9324574141163504
sI6750
F0.4975620765077059
sI6752
F0.4995
sI6755
F0.5
sI6756
F0.5
sI6757
F0.907348990557408
sI6761
F0.5
sI6765
F0.55
sI6767
F0.5
sI6768
F0.4987575000000001
sI6769
F0.9392116727047154
sI6771
F0.55
sI6773
F0.5
sI6775
F0.32805000000000006
sI6778
F0.03909239837252535
sI6780
F0.5095000000000001
sI6781
F0.9738326183486319
sI6786
F0.5
sI6787
F0.9764493565137687
sI6789
F0.55
sI6791
F0.5
sI6793
F0.17700685047183662
sI6799
F0.7073152901440768
sI6806
F0.4996972603395
sI6810
F0.5005
sI6812
F0.5
sI6821
I0
sI6822
F0.50095
sI6824
F0.5081155150500001
sI6827
F0.5021935200000001
sI6828
F0.505
sI6829
F0.500149
sI6839
F0.55
sI6851
F0.5
sI6855
F0.5
sI6857
F1.0
sI6858
F0.5
sI6860
F0.5
sI6863
F0.5
sI6864
F0.5
sI6865
F0.46656
sI6869
I0
sI6873
I0
sI6876
F0.5
sI6877
F0.48645
sI6879
F0.5
sI6881
F0.4994014500000001
sI6883
F0.36450000000000005
sI6893
F0.55
sI6905
F0.55
sI6909
F0.5
sI6911
F1.0
sI6941
F0.55
sI6945
F0.5
sI6947
F0.5
sI6956
I0
sI6957
F0.5
sI6959
F0.5
sI6962
F0.55
sI6963
F0.5
sI6964
I0
sI6966
F0.5
sI6968
F0.4545
sI6971
F0.495
sI6972
F0.5
sI6973
F0.9601167784615637
sI6977
I0
sI6981
I0
sI6984
F0.5
sI6985
F0.9166140915016672
sI6987
F0.5
sI6989
F0.5
sI6991
F0.525745
sI6995
F0.495
sI6999
F0.55
sI7001
F0.5
sI7010
I0
sI7011
F0.5
sI7013
F0.5
sI7016
F0.5
sI7017
F0.5
sI7018
F0.5950000000000001
sI7020
F0.5
sI7021
F0.04223491388651118
sI7023
F0.5
sI7025
F0.5
sI7027
F0.07617778978241328
sI7029
I0
sI7034
I0
sI7036
I0
sI7039
F0.0002946838876990009
sI7041
F0.49905
sI7042
F0.9392116727047154
sI7047
F0.46816336053682533
sI7048
F0.3890594316925435
sI7050
F0.5
sI7052
F0.5
sI7054
F0.2657205
sI7056
F0.5
sI7058
F0.4021641367053278
sI7061
F0.49995
sI7062
F0.5
sI7063
F0.525007777285
sI7066
F0.019216215175449452
sI7068
F0.5
sI7069
F0.7629152596758739
sI7074
F0.5
sI7076
F0.5
sI7079
F0.5
sI7080
F0.5
sI7081
F0.5
sI7085
F0.5
sI7089
F0.5
sI7091
F0.5
sI7092
F0.5
sI7093
F0.5
sI7095
F0.5
sI7097
F0.5
sI7099
F0.45
sI7102
F0.29524500000000004
sI7104
F0.5
sI7105
F0.5
sI7110
F0.5
sI7111
F0.5
sI7113
F0.5
sI7115
F0.5
sI7117
F0.1937102445
sI7123
F0.45
sI7128
F0.49495500000000003
sI7130
F0.4995
sI7133
F0.5
sI7134
F0.45
sI7135
I0
sI7139
F0.49576513784500004
sI7143
F0.5
sI7145
F0.45
sI7146
F0.5
sI7147
I0
sI7149
F0.5
sI7151
F0.5
sI7157
F0.5005
sI7161
F0.5
sI7163
F0.5
sI7172
F0.5
sI7173
F0.5
sI7175
F0.505
sI7178
F0.5
sI7179
F0.5
sI7180
I0
sI7182
F0.5
sI7183
I0
sI7185
F0.5
sI7187
F0.5
sI7191
F0.5
sI7193
F0.45
sI7196
F0.5
sI7197
F0.5
sI7198
I0
sI7203
F0.5
sI7204
I0
sI7210
F0.015563326304362262
sI7212
F0.5
sI7213
F0.8587852317595001
sI7218
F0.5
sI7219
F0.907348990557408
sI7221
F0.5
sI7223
F0.5
sI7225
F0.6162021527125195
sI7231
F0.8418277203908802
sI7236
F0.45183821133587443
sI7237
F0.016332467043359444
sI7239
F0.5
sI7241
F0.5
sI7243
F0.01267803478908493
sI7245
F0.5
sI7247
F0.5
sI7250
F0.5
sI7251
F0.5
sI7252
F0.7342795
sI7255
F0.002058922086255851
sI7257
F0.5
sI7258
F0.9166140915016672
sI7267
F1.0
sI7273
F1.0
sI7275
F1.0
sI7292
F0.495
sI7296
F0.5
sI7298
F0.5
sI7307
F0.5
sI7308
F0.5
sI7310
F0.5
sI7313
F0.5
sI7314
F0.5
sI7315
F0.475713
sI7325
F0.5
sI7337
F0.5
sI7341
F0.5
sI7343
F1.0
sI7344
F0.4213504793164664
sI7346
F0.405
sI7349
F0.4868145
sI7350
F0.37989
sI7351
F0.5
sI7355
F0.5
sI7359
F0.5
sI7361
F0.5
sI7362
F0.36450000000000005
sI7363
F0.25988170690318424
sI7365
F0.5
sI7367
F0.45
sI7369
F0.19545363670049998
sI7379
F0.5
sI7391
F0.5
sI7395
F0.55
sI7397
F1.0
sI7427
F0.5
sI7431
F0.495
sI7433
F0.45
sI7442
I0
sI7443
F0.5
sI7445
F0.5
sI7448
F0.5
sI7449
F0.5
sI7450
I0
sI7452
F0.495
sI7454
F0.45
sI7457
F0.5
sI7458
F0.45
sI7459
F0.9166140915016672
sI7463
F0.5
sI7467
F0.5
sI7469
F0.5
sI7470
F0.5
sI7471
F0.0016580228355083633
sI7473
F0.5
sI7475
F0.5
sI7477
F0.0004859527906842761
sI7481
F0.49307063677213503
sI7485
F0.5
sI7487
F0.45
sI7496
F0.5
sI7497
F0.478305
sI7499
F0.36450000000000005
sI7502
F0.5
sI7503
F0.405
sI7504
I0
sI7506
F0.36450000000000005
sI7507
F0.9845484228086836
sI7509
F0.55
sI7511
F0.45
sI7513
F0.5
sI7515
F0.5
sI7517
F0.5
sI7520
F0.5
sI7521
F0.5
sI7522
F0.5
sI7525
F0.000246807874669024
sI7527
F0.5
sI7528
F0.9452905054342439
sI7541
F0.5
sI7553
F0.55
sI7557
F0.5
sI7559
F1.0
sI7589
F0.5
sI7593
F0.495
sI7595
F0.5
sI7604
I0
sI7605
F0.5
sI7607
F0.5
sI7610
F0.46656
sI7611
F0.5
sI7612
F0.48195
sI7676
F0.5
sI7688
F0.55
sI7692
F0.5
sI7694
F1.0
sI7697
F0.5
sI7701
F0.5
sI7703
F0.5
sI7712
I0
sI7713
F0.5
sI7715
F0.5
sI7718
F0.5
sI7719
F0.5
sI7720
F0.67195
sI7730
F0.5
sI7742
F0.5
sI7746
F0.5
sI7748
F1.0
sI7749
F0.5
sI7751
F0.5
sI7754
F0.5
sI7755
F0.45
sI7756
F0.82566077995
sI7760
I0
sI7764
I0
sI7767
F0.5
sI7768
F1.716243986388837e-12
sI7770
F0.4905
sI7772
F0.405
sI7774
F7.825956682076997e-13
sI7776
F0.495
sI7778
F0.5
sI7781
F0.49995
sI7782
F0.5
sI7783
F0.5
sI7787
F0.33658693348968716
sI7791
F0.5
sI7793
F0.2657205
sI7794
F0.5
sI7795
F0.5
sI7797
F0.5
sI7799
F0.4995
sI7801
F0.405
sI7805
F0.499905
sI7809
F0.5
sI7811
F0.5
sI7820
F0.5
sI7821
F0.5
sI7823
F0.49905
sI7826
F0.4905
sI7827
F0.5
sI7828
I0
sI7830
F0.36450000000000005
sI7831
F0.55
sI7833
F0.5
sI7835
F0.45
sI7837
F0.5
sI7839
F0.5
sI7841
F0.29524500000000004
sI7844
F0.5
sI7845
F0.5
sI7846
F0.5
sI7849
F0.19443093754500002
sI7851
F0.45
sI7852
F0.6355000000000001
sI7859
F0.495
sI7863
F0.5
sI7865
F0.45
sI7874
I0
sI7875
F0.5
sI7877
F0.5
sI7880
F0.5
sI7881
F0.5
sI7882
I0
sI7892
F0.5
sI7904
F0.5
sI7908
F0.5
sI7910
F1.0
sI7911
F0.5
sI7913
F0.5
sI7916
F0.5
sI7917
F0.5
sI7918
I0
sI7922
I0
sI7926
I0
sI7929
F0.5
sI7930
I0
sI7932
F0.5
sI7934
F0.5
sI7938
F0.45
sI7939
F0.9249526823515004
sI7941
F0.5
sI7943
F0.5
sI7945
F0.5
sI7947
F0.5
sI7949
F0.2657205
sI7952
F0.5
sI7953
F0.5
sI7954
F0.704755
sI7957
F0.0005065775151578414
sI7959
F0.5
sI7960
F0.9738326183486319
sI7965
F0.5
sI7967
F0.45
sI7970
F0.5
sI7971
F0.5
sI7972
I0
sI7976
F0.495
sI7980
F0.5
sI7982
F0.45
sI7983
F0.45
sI7984
I0
sI7986
F0.5
sI7988
F0.45
sI7993
F1.0
sI7995
F1.0
sI8001
F1.0
sI8006
F1.0
sI8008
F1.0
sI8014
F1.0
sI8019
F0.47470508773691095
sI8020
F0.31655232756496426
sI8022
F0.499883085
sI8024
F0.5
sI8026
F0.2599228845
sI8028
F0.47985222195
sI8030
F0.405
sI8033
F0.5
sI8034
F0.45
sI8035
F0.24503065933422954
sI8038
F0.019076021223847286
sI8040
F0.499995
sI8041
F0.9956360182159562
sI8046
F0.5
sI8048
F0.5
sI8051
F0.5
sI8052
F0.5
sI8053
F0.5664843439019348
sI8057
F0.5
sI8061
F0.5
sI8063
F0.5
sI8064
F0.5
sI8065
F0.5
sI8067
F0.5
sI8069
F0.5
sI8071
F0.405
sI8074
F0.26521563104999996
sI8076
F0.5
sI8077
F0.4905
sI8082
F0.45
sI8083
F0.495
sI8085
F0.5
sI8087
F1.0
sI8089
F0.1937102445
sI8095
F0.45
sI8100
F0.5
sI8102
F0.5
sI8105
F0.5
sI8106
F0.5
sI8107
I0
sI8111
F0.55
sI8115
F0.5
sI8117
F0.5
sI8118
F0.5
sI8119
I0
sI8121
F0.49995
sI8123
F0.4995
sI8129
F0.5
sI8133
F0.5
sI8135
F0.5
sI8144
F0.5
sI8145
F0.5
sI8147
F0.5
sI8150
F0.495
sI8151
F0.5
sI8152
I0
sI8154
F0.5
sI8155
I0
sI8157
F0.5
sI8159
F1.0
sI8163
F0.5
sI8165
F1.0
sI8169
F0.5
sI8170
I0
sI8175
F0.5
sI8176
I0
sI8182
F0.024113431008326903
sI8184
F0.4995
sI8185
F0.8587852317595001
sI8190
F0.45
sI8191
F0.005736759497659555
sI8193
F0.495
sI8195
F0.5
sI8197
F0.0011253796573319876
sI8203
F1.0
sI8208
F0.5
sI8209
F0.9392116727047154
sI8211
F0.5
sI8213
F0.5
sI8215
F0.688835873270359
sI8217
F0.5
sI8219
F0.5
sI8222
F0.495
sI8223
F0.5
sI8224
F0.9845484228086836
sI8227
F1.0
sI8229
F1.0
sI8239
F0.36450000000000005
sI8245
F0.0001504070081601879
sI8247
F0.45
sI8248
I0
sI8262
F0.48435274886401125
sI8264
F0.45
sI8267
F0.5
sI8268
F0.45
sI8269
F0.48195
sI8273
I0
sI8277
I0
sI8280
F0.4574460247785871
sI8281
F0.55
sI8283
F0.55
sI8285
F0.5
sI8287
F0.405
sI8291
F0.5
sI8295
F0.495
sI8297
F0.45
sI8306
I0
sI8307
F0.5950000000000001
sI8309
F0.5
sI8312
F0.5
sI8313
F0.5
sI8314
F0.5
sI8316
F0.41950000000000004
sI8317
F0.4673295
sI8319
F0.55
sI8321
F1.0
sI8323
F0.36450000000000005
sI8325
I0
sI8332
I0
sI8335
F0.405
sI8337
F0.5
sI8338
F0.55
sI8345
F0.5
sI8349
F0.5
sI8351
F0.5
sI8360
I0
sI8361
F0.3984091078787824
sI8363
F0.36450000000000005
sI8366
F0.5
sI8367
F0.32805000000000006
sI8368
I0
sI8378
I0
sI8390
I0
sI8394
I0
sI8397
F0.5
sI8399
F1.0
sI8403
F0.5
sI8404
I0
sI8412
I0
sI8415
F0.32805000000000006
sI8416
I0
sI8418
F0.5
sI8420
F1.0
sI8424
F0.405
sI8425
F0.843094701955
sI8427
F0.5
sI8429
F0.45
sI8431
F0.45
sI8433
I0
sI8438
I0
sI8440
I0
sI8443
F1.0
sI8445
F1.0
sI8451
F0.6355000000000001
sI8453
F0.45
sI8456
F0.5
sI8457
F0.5
sI8458
F0.9249526823515004
sI8462
I0
sI8466
I0
sI8469
F1.0
sI8474
F1.0
sI8476
F1.0
sI8479
F0.005245081233968308
sI8481
F0.5
sI8482
F0.8970544339526756
sI8488
I0
sI8490
I0
sI8500
F1.0
sI8506
F0.23914845
sI8508
F0.5
sI8509
F0.48276
sI8514
F0.499995
sI8515
F0.49041450000000003
sI8517
F0.5
sI8519
F0.5
sI8521
F0.17970144500525514
sI8527
F0.40905
sI8532
F0.5
sI8533
F0.5
sI8535
F0.5
sI8537
F0.5
sI8539
F0.5
sI8541
F0.5
sI8543
F0.5
sI8546
F0.5
sI8547
F0.5
sI8548
F0.22941419393646262
sI8551
F0.5
sI8553
F0.5
sI8554
F0.5
sI8563
F0.45
sI8569
F0.45
sI8571
F0.5
sI8572
I0
sI8586
F0.5
sI8587
I0
sI8589
F0.5
sI8591
F0.5
sI8595
F0.5
sI8597
F0.50707588105
sI8600
F0.5950000000000001
sI8601
F0.5
sI8602
I0
sI8607
F0.5
sI8608
I0
sI8613
F0.5
sI8615
F0.5
sI8618
F0.5
sI8619
F0.5
sI8620
I0
sI8624
F0.4494285
sI8628
F0.495
sI8630
F0.36450000000000005
sI8631
F0.5
sI8632
I0
sI8634
F0.5
sI8636
F0.5
sI8643
F0.5
sI8644
I0
sI8649
F0.5
sI8650
I0
sI8652
F0.5
sI8654
F1.0
sI8671
F0.45
sI8677
F0.0001787006075693349
sI8679
F0.5
sI8680
I0
sI8695
F0.0018384518648542477
sI8697
F0.5
sI8698
F0.885616037725195
sI8703
F0.5
sI8704
F5.498802571890082e-07
sI8706
F0.5
sI8708
F0.45
sI8710
F2.423462516778896e-07
sI8716
F1.0
sI8750
F0.5128258458699217
sI8754
F0.491137557766413
sI8756
F0.45
sI8765
F0.5
sI8766
F0.45871274452224275
sI8768
F0.32805000000000006
sI8771
F0.5
sI8772
F0.36450000000000005
sI8773
F0.5017195
sI8783
F0.55
sI8795
F0.5
sI8799
F0.5
sI8801
F1.0
sI8802
F0.5
sI8804
F0.4545
sI8807
F0.5
sI8808
F0.45
sI8809
F0.5
sI8813
F0.5
sI8817
F0.5
sI8819
F0.5
sI8820
F0.36450000000000005
sI8821
F0.49086
sI8823
F0.5
sI8825
F0.5
sI8827
F0.44955
sI8837
F0.55
sI8849
F0.5
sI8853
F0.5
sI8855
F1.0
sI8885
F0.55
sI8889
F0.5
sI8891
F0.5
sI8900
F0.5
sI8901
F0.5
sI8903
F0.5
sI8906
I0
sI8907
F0.5
sI8908
I0
sI8910
F0.4987599725274235
sI8912
F0.405
sI8915
F0.5291692522795001
sI8916
F0.36450000000000005
sI8917
F0.01575951805559573
sI8921
F0.5
sI8925
F0.5
sI8927
F0.5
sI8928
F0.32805000000000006
sI8929
F0.885616037725195
sI8931
F0.55
sI8933
F0.5
sI8935
F0.00034472644060208445
sI8939
F0.44681265758962235
sI8943
F0.46622269812576667
sI8945
F0.405
sI8954
F0.5
sI8955
F0.55
sI8957
F0.405
sI8960
F0.5
sI8961
F0.405
sI8962
F0.5
sI8964
F0.45
sI8965
F0.9676945905538666
sI8967
F0.5
sI8969
F0.45
sI8971
F0.008711137817603696
sI8973
F0.5
sI8975
F0.5
sI8978
F0.5
sI8979
F0.5
sI8980
F0.9392116727047154
sI8983
F0.45
sI8985
F0.5
sI8986
F0.87290670858355
sI8999
F0.5
sI9011
F0.55
sI9015
F0.55
sI9017
F1.0
sI9047
F0.5
sI9051
F0.5
sI9053
F0.5
sI9062
I0
sI9063
F0.5
sI9065
F0.5
sI9068
F0.55
sI9069
F0.5
sI9070
F0.495
sI9134
F0.5
sI9146
F0.5
sI9150
F0.5
sI9152
F1.0
sI9155
F0.5
sI9159
F0.5
sI9161
F0.5
sI9170
I0
sI9171
F0.5
sI9173
F0.5
sI9176
F0.5
sI9177
F0.5
sI9178
F0.6355000000000001
sI9188
F0.5
sI9200
F0.5
sI9204
F0.55
sI9206
F1.0
sI9207
F0.5
sI9209
F0.5
sI9212
F0.5
sI9213
F0.5
sI9214
F0.15518579702799604
sI9218
I0
sI9222
I0
sI9225
F0.5
sI9226
F0.9556853094017375
sI9228
F0.5
sI9230
F0.5
sI9232
F0.07504731764849956
sI9234
F0.5
sI9236
F0.45
sI9239
F0.5
sI9240
F0.45
sI9241
F0.49995
sI9245
F0.4904362809
sI9249
F0.5
sI9251
F0.45
sI9252
F0.405
sI9253
F0.44689307445
sI9255
F0.5
sI9257
F0.5
sI9259
F0.36450000000000005
sI9263
F0.5
sI9267
F0.5
sI9269
F0.5
sI9278
F0.5
sI9279
F0.5
sI9281
F0.5
sI9284
F0.5
sI9285
F0.5
sI9286
F0.5
sI9288
F0.5
sI9289
F0.5950000000000001
sI9291
F0.5
sI9293
F0.5
sI9295
F0.5
sI9297
F0.5
sI9299
F0.45
sI9302
F0.5
sI9303
F0.5
sI9304
F0.5
sI9307
F0.405
sI9309
F0.5
sI9310
F0.5
sI9317
F0.5
sI9321
F0.4905
sI9323
F0.45
sI9332
F0.5
sI9333
F0.5
sI9335
F0.5
sI9338
I0
sI9339
F0.5
sI9340
I0
sI9350
F0.55
sI9362
F0.55
sI9366
F0.5
sI9368
F1.0
sI9369
F0.5
sI9371
F0.5
sI9374
I0
sI9375
F0.5
sI9376
I0
sI9380
F0.5
sI9384
F0.5
sI9386
F0.5
sI9387
F0.5
sI9388
I0
sI9390
I0
sI9396
F0.40905
sI9397
F0.8970544339526756
sI9399
F0.55
sI9401
F0.45
sI9403
F0.007947501751681449
sI9405
F0.5
sI9407
F0.45
sI9410
F0.5
sI9411
F0.5
sI9412
F0.9324574141163504
sI9415
F0.36450000000000005
sI9417
F0.5
sI9418
F0.87290670858355
sI9423
F0.5
sI9425
F0.36450000000000005
sI9428
F0.474255
sI9429
F0.405
sI9430
F0.34192182677184
sI9434
F0.5
sI9438
F0.5
sI9440
F0.5
sI9441
F0.5
sI9442
F0.7342795
sI9444
F0.5
sI9446
F0.405
sI9448
F0.1937102445
sI9451
F1.0
sI9453
F1.0
sI9459
F1.0
sI9464
F1.0
sI9466
F1.0
sI9472
F1.0
sI9485
I0
sI9497
I0
sI9501
I0
sI9533
I0
sI9537
I0
sI9548
I0
sI9549
I0
sI9554
I0
sI9556
I0
sI9620
I0
sI9632
I0
sI9636
I0
sI9641
I0
sI9645
I0
sI9656
I0
sI9657
I0
sI9662
I0
sI9664
I0
sI9674
I0
sI9686
I0
sI9690
I0
sI9693
I0
sI9698
I0
sI9700
I0
sI9704
I0
sI9708
I0
sI9712
I0
sI9714
I0
sI9782
I0
sI9794
I0
sI9798
I0
sI9890
I0
sI9902
I0
sI9906
I0
sI9938
I0
sI9942
I0
sI9953
I0
sI9954
I0
sI9959
I0
sI9961
I0
sI9965
I0
sI9969
I0
sI9980
I0
sI9981
I0
sI9986
I0
sI9988
I0
sI9998
I0
sI10010
I0
sI10014
I0
sI10017
I0
sI10022
I0
sI10024
I0
sI10028
I0
sI10032
I0
sI10036
I0
sI10038
I0
sI10052
I0
sI10064
I0
sI10068
I0
sI10100
I0
sI10104
I0
sI10115
I0
sI10116
I0
sI10121
I0
sI10123
I0
sI10125
I0
sI10130
I0
sI10132
I0
sI10136
I0
sI10140
I0
sI10144
I0
sI10146
I0
sI10154
I0
sI10158
I0
sI10169
I0
sI10170
I0
sI10175
I0
sI10177
I0
sI10206
F0.5
sI10208
F0.5211435633404772
sI10211
F0.55
sI10212
F0.47609507984027877
sI10213
F0.49654755
sI10217
F0.55
sI10221
F0.43719842589453073
sI10223
F0.36450000000000005
sI10224
F0.42101416599552743
sI10225
F0.55
sI10227
F0.5
sI10229
F0.5
sI10231
F0.46547549999999993
sI10235
F0.5330142414662457
sI10239
F0.5
sI10241
F0.505
sI10250
F0.495
sI10251
F0.67195
sI10253
F0.5827289981905002
sI10256
F0.6355000000000001
sI10257
F0.5
sI10258
F0.5
sI10260
F0.5
sI10261
F0.5
sI10263
F0.5
sI10265
F1.0
sI10267
F0.5
sI10269
F0.5
sI10271
F1.0
sI10275
F0.36450000000000005
sI10276
F0.5
sI10279
F0.45
sI10281
F0.5
sI10282
F0.5
sI10289
F0.5950000000000001
sI10293
F0.5
sI10295
F0.505
sI10304
F0.5
sI10305
F0.34704656363589226
sI10307
F0.29524500000000004
sI10310
I0
sI10311
F0.2657205
sI10312
I0
sI10322
F0.55
sI10334
F0.67195
sI10338
F0.5
sI10340
F1.0
sI10341
F0.5
sI10343
F1.0
sI10347
F0.5
sI10348
I0
sI10356
F0.5
sI10358
F1.0
sI10359
F0.2657205
sI10360
I0
sI10362
I0
sI10368
F0.4937013258060304
sI10369
F0.907348990557408
sI10371
F0.5950000000000001
sI10373
F0.5817057085450001
sI10375
F0.0003390725326896164
sI10377
F0.4693280222031721
sI10379
F0.36450000000000005
sI10382
F0.6355000000000001
sI10383
F0.32805000000000006
sI10384
F2.2886695032374636e-14
sI10387
F1.0
sI10389
F1.0
sI10395
F0.5950000000000001
sI10397
F0.39537651660982537
sI10400
F0.67195
sI10401
F0.44008913192103305
sI10402
F0.9166140915016672
sI10406
F0.22469105136621137
sI10410
F0.2939954812189715
sI10412
F0.08338590849833284
sI10413
F1.0
sI10418
F1.0
sI10420
F1.0
sI10423
F0.505
sI10425
F0.5
sI10426
F0.55
sI10431
F0.405
sI10432
F0.843094701955
sI10434
F0.5
sI10436
F1.0
sI10438
F1.1567454962251795e-14
sI10444
F1.0
sI10451
F0.55
sI10455
F0.5276001992990501
sI10457
F0.405
sI10466
I0
sI10467
F0.55
sI10469
F0.5
sI10472
F0.5
sI10473
F0.5817057085450001
sI10474
F0.67195
sI10484
F0.55
sI10496
F0.67195
sI10500
F0.67195
sI10502
F1.0
sI10503
F0.55
sI10505
F1.0
sI10509
F0.405
sI10510
F0.5
sI10518
I0
sI10521
F0.5
sI10522
F0.5
sI10524
F0.5
sI10526
F1.0
sI10528
F0.45
sI10538
F0.5
sI10550
F0.5
sI10554
F0.67195
sI10556
F1.0
sI10590
F0.5
sI10592
F1.0
sI10602
F0.5
sI10604
F1.0
sI10608
F0.5
sI10609
I0
sI10611
F0.6355000000000001
sI10613
F0.5
sI10616
F0.67195
sI10617
F0.36450000000000005
sI10618
F0.9676945905538666
sI10622
I0
sI10626
I0
sI10629
F1.0
sI10634
F1.0
sI10636
F1.0
sI10640
F0.5950000000000001
sI10644
F0.5
sI10646
F0.5
sI10655
I0
sI10658
F1.0
sI10662
F1.0
sI10665
F0.45
sI10666
F0.9392116727047154
sI10668
F0.5
sI10670
F1.0
sI10672
F0.07504731764849956
sI10674
I0
sI10681
I0
sI10684
F1.0
sI10686
F1.0
sI10692
F0.5
sI10693
F0.5
sI10695
F0.5
sI10697
F0.5
sI10699
F0.5
sI10701
F0.5
sI10703
F0.4860684045
sI10706
F0.55
sI10707
F0.39480401260374265
sI10708
F0.2653707924775476
sI10711
F0.405
sI10713
F0.5
sI10714
F0.55
sI10719
F0.5
sI10721
F0.4995
sI10724
F0.5
sI10725
F0.5
sI10726
F0.495
sI10730
F0.42810525000000005
sI10734
F0.5
sI10736
F0.23914845
sI10737
F0.5
sI10738
F0.5
sI10740
F0.5
sI10742
F0.45
sI10744
F0.5
sI10747
F0.5
sI10749
F0.5
sI10750
F0.5
sI10755
F0.5
sI10756
F0.5
sI10758
F0.5
sI10760
F1.0
sI10762
F0.10294556604732451
sI10768
F0.5
sI10773
F0.5
sI10775
F0.5
sI10778
I0
sI10779
F0.45
sI10780
I0
sI10784
F0.55
sI10788
F0.5
sI10790
F0.5
sI10791
F0.29524500000000004
sI10792
I0
sI10794
I0
sI10802
F0.495
sI10806
F0.5
sI10808
F0.45
sI10817
I0
sI10818
F0.5
sI10820
F0.5
sI10823
I0
sI10824
F0.5
sI10825
I0
sI10827
F0.5
sI10828
I0
sI10830
I0
sI10836
F0.5
sI10838
F1.0
sI10842
F0.5
sI10843
I0
sI10849
I0
sI10855
F0.505
sI10857
F0.5
sI10858
F0.55
sI10863
F0.49316497700754586
sI10864
F0.704755
sI10866
F0.704755
sI10868
F0.32805000000000006
sI10870
F1.1567454962251795e-14
sI10876
F1.0
sI10881
F0.5
sI10882
F0.82566077995
sI10884
F0.5
sI10886
F0.36450000000000005
sI10888
F0.1937102445
sI10890
F0.29573733555384046
sI10892
F0.08338590849833284
sI10895
I0
sI10896
F0.08338590849833284
sI10897
I0
sI10900
F1.0
sI10902
F1.0
sI10912
F1.0
sI10918
F1.0
sI10920
F1.0
sI10935
F0.47021978535847575
sI10936
F0.37631386679632034
sI10938
F0.5
sI10940
F0.5
sI10942
F0.24446286
sI10944
F0.49995
sI10946
F0.36450000000000005
sI10949
F0.5
sI10950
F0.45
sI10951
F0.5
sI10954
F0.019076021223847286
sI10956
F0.5
sI10957
F0.5
sI10962
F0.5
sI10964
F0.5
sI10967
F0.5
sI10968
F0.5
sI10969
F0.55
sI10973
F0.5
sI10977
F0.5
sI10979
F0.5
sI10980
F0.5
sI10981
F0.5
sI10983
F0.5
sI10985
F0.5
sI10987
F0.45
sI10990
F0.2657205
sI10992
F0.5
sI10993
F0.4905
sI10998
F0.5
sI10999
F0.5
sI11001
F0.5
sI11003
F0.5
sI11005
F0.1937102445
sI11011
F0.45
sI11016
F0.49995
sI11018
F0.5
sI11021
F0.5
sI11022
F0.5
sI11023
I0
sI11027
F0.5
sI11031
F0.5
sI11033
F0.5
sI11034
F0.5
sI11035
I0
sI11037
F0.5
sI11039
F0.5
sI11045
F0.5
sI11049
F0.5
sI11051
F0.5
sI11060
F0.5
sI11061
F0.5
sI11063
F0.5
sI11066
F0.5
sI11067
F0.5
sI11068
I0
sI11070
F0.5
sI11071
I0
sI11073
F0.5
sI11075
F0.5
sI11079
F0.5
sI11081
F0.5
sI11084
F0.5
sI11085
F0.5
sI11086
I0
sI11091
F0.5
sI11092
I0
sI11098
F0.03533519872455595
sI11100
F0.5
sI11101
F0.003151854271272576
sI11106
F0.5
sI11107
F0.9324574141163504
sI11109
F0.5
sI11111
F0.5
sI11113
F1.0
sI11119
F0.0011442878186568052
sI11124
F0.504495
sI11125
F0.87290670858355
sI11127
F0.49995
sI11129
F0.4995
sI11131
F1.0
sI11133
F0.55
sI11135
F0.5
sI11138
F0.5
sI11139
F1.0
sI11143
F0.405
sI11145
F0.5
sI11146
F0.704755
sI11155
F0.0010677491476691167
sI11161
F0.45
sI11163
F0.5
sI11164
I0
sI11178
F0.495
sI11180
F0.45
sI11183
F0.5
sI11184
F0.5
sI11185
F0.55
sI11189
I0
sI11193
I0
sI11196
F0.5
sI11197
F0.49195
sI11199
F0.5
sI11201
F0.5
sI11203
F0.5
sI11207
F0.5
sI11211
F0.5
sI11213
F0.5
sI11222
I0
sI11223
F0.5
sI11225
F0.5
sI11228
F0.5
sI11229
F0.5
sI11230
F0.5
sI11232
F0.5
sI11233
F0.4673295
sI11235
F0.5
sI11237
F0.5
sI11239
F0.405
sI11241
I0
sI11246
I0
sI11248
I0
sI11251
F0.36450000000000005
sI11253
F0.5
sI11254
F0.5
sI11261
F0.5
sI11265
F0.5
sI11267
F0.5
sI11276
I0
sI11277
F0.495
sI11279
F0.5
sI11282
F0.5
sI11283
F0.5
sI11284
I0
sI11294
I0
sI11306
I0
sI11310
I0
sI11313
F0.5
sI11315
F0.5
sI11318
F0.5
sI11319
F0.5
sI11320
I0
sI11324
I0
sI11328
I0
sI11331
F0.45
sI11332
I0
sI11334
F0.5
sI11336
F0.5
sI11340
F0.45
sI11341
F0.87290670858355
sI11343
F0.5
sI11345
F0.5
sI11347
F1.0
sI11349
I0
sI11354
I0
sI11359
F0.505
sI11361
F0.5
sI11362
F0.704755
sI11367
F0.5
sI11369
F0.45
sI11372
F0.495
sI11373
F1.0
sI11378
I0
sI11385
F0.5
sI11386
F0.5
sI11388
F0.5
sI11390
F0.45
sI11392
F1.0
sI11395
F0.00022635263906075443
sI11397
F0.5
sI11398
F0.40406020195500003
sI11404
I0
sI11406
I0
sI11416
F0.29524500000000004
sI11422
F0.2657205
sI11424
F0.5
sI11425
F0.5
sI11430
F0.4995
sI11431
F0.5
sI11433
F0.5
sI11435
F0.4995
sI11437
F0.45
sI11443
F0.5
sI11448
F0.5
sI11449
F0.495
sI11451
F0.5
sI11453
F0.5
sI11455
F0.405
sI11457
F0.5
sI11459
F0.5
sI11462
F0.495
sI11463
F0.5
sI11464
F0.5
sI11467
F0.5
sI11469
F0.5
sI11470
F0.5
sI11479
F0.45
sI11485
F0.5
sI11487
F0.5
sI11488
I0
sI11502
F0.4995
sI11503
I0
sI11505
F0.495
sI11507
F0.5
sI11511
F0.495
sI11513
F0.45
sI11516
F0.5
sI11517
F0.5
sI11518
I0
sI11523
F0.5
sI11524
I0
sI11529
F0.48645
sI11531
F0.5
sI11534
F0.495
sI11535
F0.45
sI11536
I0
sI11540
F0.5
sI11544
F0.5
sI11546
F0.5
sI11547
F0.45
sI11548
I0
sI11550
F0.5
sI11552
F0.45
sI11559
F0.5
sI11560
I0
sI11565
F0.45
sI11566
I0
sI11568
F0.5
sI11570
F0.5
sI11587
F0.0010824844430525416
sI11593
F0.45
sI11595
F0.5
sI11596
I0
sI11611
F0.00222079954827715
sI11613
F0.5
sI11614
F0.28895182472511616
sI11619
F0.5
sI11620
F0.7608515499999999
sI11622
F0.5
sI11624
F0.5
sI11626
F1.0
sI11632
F0.17433922005
sI11664
F0.5
sI11666
F0.5
sI11669
F0.5
sI11670
F0.5
sI11671
F0.5950000000000001
sI11675
F0.5
sI11679
F0.5
sI11681
F0.5
sI11682
F0.5
sI11683
F0.5
sI11685
F0.5
sI11687
F0.5
sI11689
F0.40905
sI11693
F0.5
sI11697
F0.5
sI11699
F0.5
sI11708
F0.5
sI11709
F0.5
sI11711
F0.5
sI11714
F0.5
sI11715
F0.5
sI11716
I0
sI11718
F0.4041178522271953
sI11719
F0.5196992032945001
sI11721
F0.5
sI11723
F0.4995
sI11725
F0.45
sI11727
F0.3366135686976653
sI11729
F0.2657205
sI11732
F0.495
sI11733
F0.2657205
sI11734
F0.5950000000000001
sI11737
F0.20836430854104748
sI11739
F0.5
sI11740
F0.2735047631282004
sI11747
F0.5
sI11751
F0.5
sI11753
F0.5
sI11762
I0
sI11763
F0.5
sI11765
F0.5
sI11768
F0.495
sI11769
F0.5
sI11770
I0
sI11780
F0.5
sI11792
F0.5
sI11796
F0.5
sI11798
F1.0
sI11799
F0.5
sI11801
F0.5
sI11804
F0.5
sI11805
F0.5
sI11806
I0
sI11810
I0
sI11814
I0
sI11817
F0.5
sI11818
I0
sI11820
F0.5
sI11822
F0.45
sI11826
F0.5
sI11827
F0.907348990557408
sI11829
F0.49995
sI11831
F0.5
sI11833
F1.0
sI11835
F0.5
sI11837
F0.5
sI11840
F0.5
sI11841
F1.0
sI11845
F0.00010397079981366449
sI11847
F0.5
sI11848
F8.444625719614079e-05
sI11853
F0.5
sI11855
F0.4690329825078489
sI11858
F0.3214685025066672
sI11859
F1.0
sI11864
F0.704755
sI11870
F1.0
sI11871
F0.45
sI11872
I0
sI11874
F0.5
sI11876
F0.215233605
sI11881
F0.5903301430450001
sI11883
F0.4995
sI11884
F0.87290670858355
sI11889
F0.2657205
sI11890
F0.704755
sI11892
F0.5
sI11894
F0.5
sI11896
F1.0
sI11902
F3.427980662063985e-05
sI11909
F0.5
sI11913
F0.5
sI11915
F0.5
sI11924
I0
sI11925
F0.5
sI11927
F0.5
sI11930
F0.5
sI11931
F0.5
sI11932
F0.55
sI11942
F0.5
sI11954
F0.5
sI11958
F0.5
sI11960
F1.0
sI11961
F0.49981949999999997
sI11963
F0.5
sI11966
F0.5
sI11967
F0.5
sI11968
F0.5
sI11972
I0
sI11976
I0
sI11979
F0.498195
sI11980
F0.46656
sI11982
F0.5
sI11984
F0.36450000000000005
sI11986
F0.32805000000000006
sI11996
F0.5
sI12008
F0.5
sI12012
F0.5
sI12014
F1.0
sI12044
F0.5
sI12048
F0.5
sI12050
F0.5
sI12059
I0
sI12060
F0.5
sI12062
F0.5
sI12065
I0
sI12066
F0.5
sI12067
I0
sI12069
F0.5
sI12071
F0.5
sI12074
F0.5
sI12075
F1.0
sI12080
I0
sI12087
F0.5
sI12088
F0.55
sI12090
F0.5
sI12092
F0.5
sI12094
F1.0
sI12098
F0.6355000000000001
sI12104
F1.0
sI12114
F0.5
sI12116
F0.5
sI12119
I0
sI12120
F1.0
sI12123
F0.5
sI12124
F0.8062897554999999
sI12126
F0.495
sI12128
F0.5
sI12130
F1.0
sI12132
I0
sI12137
I0
sI12142
F7.043361013869297e-13
sI12144
F0.405
sI12145
I0
sI12150
F0.5
sI12151
F0.4905
sI12153
F0.5
sI12155
F0.5
sI12157
F0.45
sI12159
F0.5
sI12161
F0.2657205
sI12164
F0.5
sI12165
F0.5
sI12166
F0.5
sI12169
F0.45
sI12171
F0.5
sI12172
F0.5
sI12177
F0.5
sI12179
F0.5
sI12182
F0.5
sI12183
F0.5
sI12184
I0
sI12188
F0.5
sI12192
F0.5
sI12194
F0.5
sI12195
F0.5
sI12196
I0
sI12198
F0.5
sI12200
F0.45
sI12205
F0.405
sI12207
F0.5
sI12208
F0.5
sI12213
F0.2657205
sI12214
F0.6355000000000001
sI12216
F0.5
sI12218
F0.45
sI12220
F0.5
sI12226
F0.10294556604732451
sI12231
F0.5
sI12233
F0.5
sI12236
F0.5
sI12237
F0.5
sI12238
I0
sI12242
I0
sI12246
I0
sI12249
F0.5
sI12250
I0
sI12252
F0.5
sI12254
F0.5
sI12260
F0.5
sI12264
F0.5
sI12266
F0.5
sI12275
I0
sI12276
F0.5
sI12278
F0.5
sI12281
I0
sI12282
F0.5
sI12283
I0
sI12285
F0.5
sI12286
I0
sI12288
F0.5
sI12290
F0.5
sI12294
I0
sI12299
I0
sI12301
I0
sI12306
F0.5
sI12307
I0
sI12313
F0.45
sI12315
F0.5
sI12316
F0.704755
sI12321
F0.5
sI12322
F0.55
sI12324
F0.5
sI12326
F0.5
sI12328
F1.0
sI12334
F3.427980662063985e-05
sI12339
F0.5
sI12340
I0
sI12342
F0.5
sI12344
F0.1937102445
sI12348
F0.5
sI12350
F0.45
sI12353
I0
sI12354
F1.0
sI12360
F0.5
sI12361
I0
sI12370
F1.0
sI12376
F1.0
sI12378
F1.0
sI12394
F0.2657205
sI12396
F0.49883085
sI12397
F0.4883085
sI12402
F0.45
sI12403
F0.5
sI12405
F0.5
sI12407
F0.5
sI12409
F0.17433922005
sI12415
F0.41269500000000003
sI12420
F0.5
sI12421
F0.513593704
sI12423
F0.5
sI12425
F0.5
sI12427
F0.5
sI12429
F0.5
sI12431
F0.5
sI12434
F0.5
sI12435
F0.5
sI12436
F0.5
sI12439
F0.5
sI12441
F0.5
sI12442
F0.5950000000000001
sI12451
F0.45
sI12457
F0.45
sI12459
F0.5
sI12460
I0
sI12474
F0.5
sI12475
I0
sI12477
F0.5
sI12479
F0.5
sI12483
F0.495
sI12485
F0.5
sI12488
F0.5
sI12489
F0.45
sI12490
I0
sI12495
F0.5
sI12496
I0
sI12501
F0.5
sI12503
F0.5
sI12506
F0.5
sI12507
F0.5
sI12508
I0
sI12512
F0.5
sI12516
F0.5
sI12518
F0.5
sI12519
F0.5
sI12520
I0
sI12522
F0.5
sI12524
F0.45
sI12531
F0.5
sI12532
I0
sI12537
F0.5
sI12538
I0
sI12540
F0.5
sI12542
F1.0
sI12559
F0.0011091228170525922
sI12565
F0.00014984533643922637
sI12567
F0.5
sI12568
I0
sI12583
F0.5674627945000001
sI12585
F0.5
sI12586
F0.7608515499999999
sI12591
F0.5
sI12592
F0.67195
sI12594
F0.5
sI12596
F0.5
sI12598
F1.0
sI12604
F1.0
sI12636
F0.45
sI12637
F0.474255
sI12639
F0.5
sI12641
F0.5
sI12643
F0.405
sI12645
I0
sI12650
I0
sI12652
I0
sI12655
F0.405
sI12657
F0.5
sI12658
F0.5950000000000001
sI12663
F0.5
sI12665
F0.5
sI12668
F0.5
sI12669
F0.5
sI12670
F0.5
sI12674
I0
sI12678
I0
sI12681
F0.5
sI12682
F0.5
sI12684
F0.5
sI12686
F0.5
sI12688
F0.5
sI12691
F0.405
sI12693
F0.5
sI12694
F0.5
sI12700
I0
sI12702
I0
sI12712
F0.5
sI12717
F0.5
sI12719
F0.5
sI12722
F0.5
sI12723
F0.5
sI12724
I0
sI12728
I0
sI12732
I0
sI12735
F0.32805000000000006
sI12736
I0
sI12738
F0.5
sI12740
F0.5
sI12746
I0
sI12750
I0
sI12761
I0
sI12762
I0
sI12767
I0
sI12769
I0
sI12771
F0.5
sI12772
I0
sI12774
F0.5
sI12776
F1.0
sI12780
I0
sI12787
I0
sI12792
F0.5
sI12793
I0
sI12799
F0.45
sI12801
F0.5
sI12802
F0.7847663949999999
sI12808
I0
sI12810
I0
sI12820
F1.0
sI12825
F0.5
sI12826
F0.67195
sI12828
F0.5
sI12830
F0.5
sI12832
F1.0
sI12834
I0
sI12839
I0
sI12844
F1.0
sI12846
F1.0
sI12856
F0.29524500000000004
sI12865
I0
sI12883
F0.45
sI12889
F0.44955
sI12891
F0.5
sI12892
I0
sI12907
F0.45
sI12909
F0.5
sI12910
F0.5
sI12915
F0.5
sI12916
F0.495
sI12918
F0.5
sI12920
F0.45
sI12922
F0.07504731764849956
sI12928
F0.5
sI12963
F0.45
sI12964
I0
sI12969
F0.5
sI12970
I0
sI12972
F0.5
sI12974
F0.45
sI12987
F0.45
sI12988
I0
sI12990
F0.5
sI12992
F0.5
sI12996
F0.495
sI12998
F0.32805000000000006
sI13001
I0
sI13002
F0.45
sI13003
I0
sI13008
F0.5
sI13009
I0
sI13026
F0.5
sI13027
I0
sI13072
F0.17433922005
sI13078
F2.6927361297543287e-07
sI13080
F0.5
sI13081
I0
sI13123
F0.021189398282492337
sI13125
F0.49410815405036124
sI13126
F0.54173030574149
sI13131
F0.4618134160470988
sI13132
F0.41316733346911455
sI13134
F0.5005
sI13136
F0.505
sI13138
F0.3452177754149578
sI13144
F0.5673331956725328
sI13149
F0.49475977605004146
sI13150
F0.504272002470707
sI13152
F0.50095
sI13154
F0.5
sI13156
F0.037124492151078194
sI13158
F0.5017590000000001
sI13160
F0.506295
sI13163
F0.55
sI13164
F0.5
sI13165
F0.496440235
sI13168
F0.405
sI13170
F0.4995
sI13171
F0.5950000000000001
sI13180
F0.009521056846539755
sI13186
F0.33979500000000007
sI13188
F0.5
sI13189
I0
sI13203
F0.4798935348608997
sI13204
F0.49415422957949495
sI13206
F0.46159391890975066
sI13208
F0.36450000000000005
sI13210
F0.4375665830052882
sI13212
F0.48983305140163147
sI13214
F0.405
sI13217
F0.5
sI13218
F0.405
sI13219
F0.496490553
sI13222
F0.041014560547850146
sI13224
F0.405
sI13225
F0.9860935805278153
sI13230
F0.50095
sI13232
F0.405
sI13235
F0.5
sI13236
F0.45
sI13237
F0.5
sI13241
F0.4905
sI13245
F0.5
sI13247
F0.5
sI13248
F0.45
sI13249
F0.9809239787761527
sI13251
F0.5
sI13253
F0.5
sI13255
F0.36450000000000005
sI13258
F0.3864051403000999
sI13260
F0.405
sI13261
F0.31118558932767526
sI13266
F0.45
sI13267
F0.495
sI13269
F0.5
sI13271
F0.5
sI13273
F0.405
sI13279
F0.0014784726536501256
sI13288
F0.36450000000000005
sI13294
F0.019924933087910976
sI13296
F0.45
sI13297
I0
sI13312
F0.301806
sI13314
F0.5
sI13315
F0.5
sI13320
F0.5
sI13321
F0.5
sI13323
F0.5
sI13325
F1.0
sI13327
F0.405
sI13333
F0.405
sI13365
F0.49411272403347856
sI13366
F0.5053456318068724
sI13368
F0.5014
sI13370
F0.5
sI13372
F0.4961655
sI13374
F0.5004145
sI13376
F0.41267042765432904
sI13379
F0.5
sI13380
F0.5
sI13381
F0.502615
sI13384
F0.3101258888762319
sI13386
F0.4995
sI13387
F0.5840889826162725
sI13392
F0.4998788193545115
sI13394
F0.45
sI13397
F0.5
sI13398
F0.45
sI13399
F0.4673295
sI13403
F0.55
sI13407
F0.5
sI13409
F0.5
sI13410
F0.45
sI13411
F0.5
sI13413
F0.495
sI13415
F0.5
sI13417
F0.405
sI13420
F0.49292335165671275
sI13422
F0.5
sI13423
F0.4787892550822009
sI13428
F0.5
sI13429
F0.5
sI13431
F0.5
sI13433
F0.5
sI13435
F0.4510877015997176
sI13441
F0.44945925855849
sI13446
F0.49417198111224475
sI13448
F0.45
sI13451
F0.5
sI13452
F0.36450000000000005
sI13453
F0.5
sI13457
F0.3331636645255227
sI13461
F0.5
sI13463
F0.2657205
sI13464
F0.45
sI13465
F0.01059372018168217
sI13467
F0.5
sI13469
F0.5
sI13471
F0.00025261909090013403
sI13475
I0
sI13479
I0
sI13490
I0
sI13491
I0
sI13496
I0
sI13498
I0
sI13500
F0.4958761766451665
sI13501
F0.5
sI13503
F0.5005
sI13505
F0.5
sI13507
F0.43368945881059584
sI13509
F0.495
sI13511
F0.2657205
sI13514
F0.5
sI13515
F0.45
sI13516
F0.34164312077672554
sI13519
F0.023949500167300238
sI13521
F0.5
sI13522
F0.0007739889875493718
sI13528
F0.49873976906083034
sI13530
F0.5
sI13531
F0.5
sI13536
F0.507931561
sI13537
F0.50956525
sI13539
F0.5
sI13541
F1.0
sI13543
F0.56270935
sI13549
F0.5
sI13554
F0.5122989132449501
sI13555
F0.5145778540000001
sI13557
F0.55
sI13559
F1.0
sI13561
F0.405
sI13563
F0.55
sI13565
F1.0
sI13569
F0.5
sI13570
F0.67195
sI13573
F0.45
sI13575
F0.5
sI13576
F0.5
sI13585
F0.45
sI13591
F0.45
sI13593
F0.5
sI13594
I0
sI13612
F0.45
sI13618
F0.011937060346897977
sI13620
F0.5
sI13621
I0
sI13636
F0.36450000000000005
sI13638
F0.5
sI13639
F0.5
sI13644
F0.5
sI13645
F0.48195
sI13647
F0.5
sI13649
F0.5
sI13651
F0.405
sI13657
F1.0
sI13690
F0.40238507171261073
sI13692
F0.41950000000000004
sI13693
F0.5
sI13698
F0.405
sI13699
F0.3224970313839896
sI13701
F0.5
sI13703
F0.5
sI13705
F0.0005028615165926969
sI13711
F1.0
sI13716
F0.5095000000000001
sI13717
F0.55
sI13719
F0.5
sI13721
F0.36450000000000005
sI13723
F0.5
sI13725
F0.5
sI13727
F0.45
sI13730
F0.5
sI13731
F0.5
sI13732
F0.43725784500000003
sI13735
F1.0
sI13737
F1.0
sI13747
F0.24321024450000003
sI13753
F0.23914845
sI13755
F0.5
sI13756
I0
sI13801
F0.45
sI13807
F0.45
sI13809
F0.5
sI13810
I0
sI13851
F0.41964193187403465
sI13852
F0.01300249288968472
sI13854
F0.5025162205000001
sI13856
F0.5149755
sI13858
F0.011211279049700726
sI13860
F0.5
sI13862
F0.5
sI13865
F0.55
sI13866
F0.45
sI13867
F0.2644588474796091
sI13870
F0.011432708319107535
sI13872
F0.5
sI13873
F0.7342795
sI13878
F0.5
sI13880
F0.5
sI13883
F0.55
sI13884
F0.5
sI13885
I0
sI13889
F0.55
sI13893
F0.5
sI13895
F0.5
sI13896
F0.5
sI13897
I0
sI13899
F0.5
sI13901
F0.5
sI13906
F0.011788931779512754
sI13908
F0.4995
sI13909
F0.496211179996612
sI13914
F0.5
sI13915
F0.006989428502180251
sI13917
F0.495
sI13919
F0.45
sI13921
F0.003248165786000375
sI13927
F0.50548652534575
sI13932
F0.5
sI13934
F0.5
sI13937
F0.495
sI13938
F0.405
sI13939
F0.36615015095087744
sI13943
I0
sI13947
I0
sI13950
F0.5
sI13951
F0.9324574141163504
sI13953
F0.5
sI13955
F0.505
sI13957
F0.23914845
sI13961
F0.5
sI13965
F0.5
sI13967
F0.5
sI13976
I0
sI13977
F0.5
sI13979
F0.5
sI13982
F0.55
sI13983
F0.5
sI13984
I0
sI13986
F0.5
sI13987
F0.5081080960697167
sI13989
F0.5
sI13991
F0.45
sI13993
F0.23914845
sI13995
I0
sI14000
I0
sI14002
I0
sI14005
F0.528208347907824
sI14007
F0.5
sI14008
F0.704755
sI14014
F0.011282824513423571
sI14016
F0.5095000000000001
sI14017
F0.495
sI14022
F0.5
sI14023
F0.495
sI14025
F0.55
sI14027
F1.0
sI14029
F0.18153141312448295
sI14035
F0.3313305
sI14040
F0.45
sI14041
I0
sI14043
F0.5
sI14045
F1.0
sI14049
F0.5
sI14051
F1.0
sI14055
F0.5
sI14056
I0
sI14061
F0.5
sI14062
I0
sI14071
F0.45
sI14077
F0.003314070951045281
sI14079
F0.5
sI14080
I0
sI14094
F0.5005
sI14096
F0.505
sI14099
F0.55
sI14100
F0.5
sI14101
F0.4905
sI14105
F0.6355000000000001
sI14109
F0.5
sI14111
F0.45
sI14112
F0.5
sI14113
F0.5
sI14115
F0.5
sI14117
F0.5
sI14119
F0.45
sI14123
F0.5
sI14127
F0.5
sI14129
F0.5
sI14138
F0.5
sI14139
F0.5
sI14141
F0.5
sI14144
F0.5
sI14145
F0.5
sI14146
I0
sI14148
F0.50005
sI14149
F0.488933667148342
sI14151
F0.5
sI14153
F0.5
sI14155
F0.47658282858045
sI14157
F0.5
sI14159
F0.5
sI14162
F0.5
sI14163
F0.45
sI14164
F0.2952516979658613
sI14167
F0.46964592625499996
sI14169
F0.5
sI14170
F0.350615542545
sI14177
F0.5
sI14181
F0.5
sI14183
F0.5
sI14192
I0
sI14193
F0.5
sI14195
F0.5
sI14198
F0.5
sI14199
F0.5
sI14200
F0.378385460559
sI14210
I0
sI14222
I0
sI14226
I0
sI14229
F0.48713558756354997
sI14231
F0.405
sI14234
F0.5
sI14235
F0.45
sI14236
F0.3972521475
sI14240
I0
sI14244
I0
sI14247
F0.46079123346
sI14248
F0.3133935766756404
sI14250
F0.37474562114999993
sI14252
F0.1937102445
sI14254
F0.156905298045
sI14256
F0.5
sI14257
F0.5
sI14259
F0.55
sI14261
F1.0
sI14263
F0.5
sI14265
F0.5
sI14267
F1.0
sI14271
F0.5
sI14272
F0.67195
sI14275
F0.2969883922005
sI14277
F0.5
sI14278
F0.47657205
sI14283
F0.55
sI14285
F1.0
sI14289
F0.5
sI14290
I0
sI14298
F0.5
sI14300
F1.0
sI14301
F0.45
sI14302
I0
sI14304
F0.5
sI14306
F1.0
sI14311
F0.13719674043143834
sI14313
F0.5
sI14314
F0.04330607820161471
sI14319
F0.4995
sI14320
F0.11219134639248772
sI14322
F0.5
sI14324
F1.0
sI14326
F0.054709494565756175
sI14332
F0.006651397323645565
sI14338
F0.010874411637368839
sI14340
F0.4995
sI14341
F0.5
sI14346
F0.5
sI14347
F0.486
sI14349
F0.495
sI14351
F0.5
sI14353
F0.1937102445
sI14359
F1.0
sI14364
F0.45
sI14365
I0
sI14367
F0.5
sI14369
F0.5095000000000001
sI14373
F0.5
sI14375
F0.45855000000000007
sI14378
F0.5950000000000001
sI14379
F0.5
sI14380
I0
sI14385
F1.0
sI14395
F0.45
sI14401
F0.00264583013656146
sI14403
F0.45
sI14404
I0
sI14418
F0.5
sI14419
F0.5950000000000001
sI14421
F0.55
sI14423
F0.5
sI14425
F0.259783605
sI14427
I0
sI14432
I0
sI14434
I0
sI14437
F1.0
sI14439
F1.0
sI14445
F0.5
sI14447
F0.45
sI14450
F0.55
sI14451
F0.5
sI14452
I0
sI14456
I0
sI14460
I0
sI14463
F1.0
sI14468
F1.0
sI14473
F0.23914845
sI14475
F0.5
sI14476
F0.55
sI14482
I0
sI14484
I0
sI14494
F1.0
sI14503
F0.5
sI14509
F0.45
sI14511
F0.5
sI14512
I0
sI14529
F0.5
sI14530
I0
sI14535
F0.5
sI14536
I0
sI14538
F0.5
sI14540
F1.0
sI14584
F0.03278052371398369
sI14590
F0.32805000000000006
sI14592
F0.5
sI14593
I0
sI14608
F0.5139794273946948
sI14610
F0.5
sI14611
F0.5950000000000001
sI14616
F0.5
sI14617
F0.55
sI14619
F0.5
sI14621
F0.5
sI14623
F0.50940235
sI14629
F0.51355
sI14662
F0.3839103236092188
sI14664
F0.405
sI14665
F0.7342795
sI14670
F0.4901205633278679
sI14671
F0.5
sI14673
F0.5
sI14675
F0.5
sI14677
F0.49420021005000003
sI14683
F0.05383956502900343
sI14688
F0.45
sI14689
F0.5950000000000001
sI14691
F0.5
sI14693
F0.5
sI14695
F0.006282040604847129
sI14697
F0.5
sI14699
F0.45
sI14702
F0.5
sI14703
F0.5
sI14704
F0.907348990557408
sI14707
F0.25384929504342446
sI14709
F0.5
sI14710
F0.9556853094017375
sI14719
F0.23914845
sI14725
F0.45
sI14727
F0.5
sI14728
I0
sI14773
F0.45
sI14779
F0.29524500000000004
sI14781
F0.45
sI14782
I0
sI14824
F0.4967736669628105
sI14826
F0.5122450000000001
sI14827
F0.67195
sI14832
F0.505
sI14833
F0.5950000000000001
sI14835
F0.55
sI14837
F0.5
sI14839
F0.49905
sI14845
F0.6811561374310054
sI14850
F0.405
sI14851
F0.55
sI14853
F0.55
sI14855
F0.5
sI14857
F0.45
sI14859
F0.5
sI14861
F0.5
sI14864
F0.5
sI14865
F0.5
sI14866
F0.5950000000000001
sI14869
F0.5
sI14871
F0.45
sI14872
F0.7608515499999999
sI14881
F0.45
sI14887
F0.5
sI14889
F0.5
sI14890
I0
sI14904
F0.45
sI14905
F0.5950000000000001
sI14907
F0.55
sI14909
F0.5
sI14911
F0.5
sI14913
F0.55
sI14915
F0.2657205
sI14918
F0.5
sI14919
F0.5
sI14920
F0.5950000000000001
sI14923
F0.0002722629008368572
sI14925
F0.5
sI14926
F0.9898622202047773
sI14931
I0
sI14936
I0
sI14938
I0
sI14942
I0
sI14946
I0
sI14950
I0
sI14952
I0
sI14959
F0.504227102445
sI14961
F0.5
sI14962
F0.55
sI14967
F0.5
sI14968
F0.55
sI14970
F0.5
sI14972
F1.0
sI14974
F0.23914845
sI14980
F0.00038677700507271415
sI14989
F0.5
sI14995
F0.405
sI14997
F0.5
sI14998
I0
sI15013
F0.5667702445000002
sI15015
F0.5
sI15016
F0.67195
sI15021
F0.6709960596600864
sI15022
F0.7847663949999999
sI15024
F0.704755
sI15026
F1.0
sI15028
F0.2657205
sI15034
F1.0
sI15097
F0.45
sI15103
F0.36450000000000005
sI15105
F0.5
sI15106
I0
sI15151
F0.5
sI15157
F0.23914845
sI15159
F0.5
sI15160
I0
sI15175
F0.505
sI15177
F0.5
sI15178
F0.55
sI15183
F0.4995
sI15184
F0.5
sI15186
F0.5
sI15188
F0.5
sI15190
F0.23914845
sI15196
F1.0
sI15309
F0.49278605983320745
sI15310
F0.5069886880926824
sI15312
F0.5026149999999999
sI15314
F0.405
sI15316
F0.4965992810069867
sI15318
F0.5
sI15320
F0.5
sI15323
F0.5
sI15324
F0.4995
sI15325
F0.5
sI15328
F0.488258723557183
sI15330
F0.45
sI15331
F0.67195
sI15336
F0.500454595
sI15338
F0.5
sI15341
F0.5
sI15342
F0.5
sI15343
F0.4958595
sI15347
F0.5
sI15351
F0.5
sI15353
F0.5
sI15354
F0.4995
sI15355
F0.55
sI15357
F0.5
sI15359
F0.45
sI15361
F0.45
sI15364
F0.495027855
sI15366
F0.5
sI15367
F0.474255
sI15372
F0.5
sI15373
F0.5
sI15375
F0.5
sI15377
F0.5
sI15379
F0.4982805
sI15385
F0.45
sI15390
F0.4891561036430102
sI15392
F0.45
sI15395
I0
sI15396
F0.4837240230689502
sI15397
F0.49995
sI15401
F0.5
sI15405
F0.4594857630723896
sI15407
F0.405
sI15408
F0.45
sI15409
F0.9860935805278153
sI15411
I0
sI15415
F0.3990853039028333
sI15419
F0.5
sI15423
F0.5
sI15425
F0.5
sI15434
F0.5
sI15435
F0.5
sI15437
F0.5
sI15440
I0
sI15441
F0.5
sI15442
F0.5
sI15444
F0.405
sI15445
F0.5
sI15447
I0
sI15451
F0.4737666402702487
sI15453
F0.5
sI15455
F0.5
sI15458
I0
sI15459
F0.405
sI15460
F0.4391674605
sI15463
F0.36450000000000005
sI15466
I0
sI15472
F0.44361486943433504
sI15474
F0.5135500000000001
sI15475
F0.495
sI15480
F0.496032705
sI15481
F0.36336210736603053
sI15483
F0.55
sI15485
F1.0
sI15487
F0.0018679559020289005
sI15493
F0.5
sI15498
F0.487823983421206
sI15499
F0.4534660871333232
sI15501
F0.5
sI15503
F1.0
sI15505
F0.40229136
sI15507
F0.5950000000000001
sI15509
F1.0
sI15513
F0.514
sI15514
F0.2278276434981165
sI15517
F0.405
sI15519
F0.5
sI15520
F0.5
sI15529
F0.405
sI15535
F0.2657205
sI15537
F0.5
sI15538
I0
sI15552
F0.5005
sI15554
F0.5
sI15557
F0.5
sI15558
F0.499995
sI15559
F0.49995
sI15563
F0.55
sI15567
F0.5
sI15569
F0.5
sI15570
F0.49905
sI15571
F0.45173132588079556
sI15573
F0.495
sI15575
F0.5
sI15577
F0.4041820648044554
sI15581
F0.5
sI15585
F0.5
sI15587
F0.5
sI15596
F0.5
sI15597
F0.4905
sI15599
F0.45
sI15602
F0.5
sI15603
F0.5
sI15604
F0.495
sI15606
F0.5
sI15607
F0.49995
sI15609
F0.5
sI15611
F0.5
sI15613
F0.4995
sI15615
F0.5
sI15617
F0.5
sI15620
F0.5
sI15621
F0.5
sI15622
F0.4673295
sI15625
F0.32849344215555676
sI15627
F0.5
sI15628
F0.36910410921450004
sI15635
F0.5
sI15639
F0.5
sI15641
F0.5
sI15650
F0.5
sI15651
F0.5
sI15653
F0.5
sI15656
I0
sI15657
F0.5
sI15658
F0.15195148581290807
sI15668
I0
sI15680
I0
sI15684
I0
sI15687
F0.4993581784401
sI15689
F0.5
sI15692
I0
sI15693
F0.5
sI15694
F0.42907008150000003
sI15698
F0.5
sI15702
F0.5
sI15704
F0.5
sI15705
F0.5
sI15706
F4.488413501954643e-06
sI15708
I0
sI15712
F1.7940255655547507e-06
sI15714
F0.5084791335000001
sI15715
F0.4928444906083032
sI15717
F0.55
sI15719
F1.0
sI15721
F0.42141220331837737
sI15723
F0.5950000000000001
sI15725
F1.0
sI15729
F0.5
sI15730
F0.21402485528322396
sI15733
F0.4237509461569
sI15735
F0.5
sI15736
F0.5
sI15741
F0.55
sI15743
F1.0
sI15747
F0.5
sI15748
F0.3555013453785
sI15756
F0.5950000000000001
sI15758
F1.0
sI15759
F0.5
sI15760
F0.5950000000000001
sI15762
F0.5
sI15764
F1.0
sI15766
F0.215233605
sI15769
F0.38886643188797665
sI15771
F0.5
sI15772
F0.2846481773953563
sI15777
F0.5
sI15778
F0.31379956095349254
sI15780
F0.5
sI15782
F1.0
sI15784
F7.489263629654158e-09
sI15790
F0.1412147682405
sI15796
F0.4987274647674847
sI15798
F0.4995
sI15799
F0.5
sI15804
F0.5
sI15805
F0.487274647674847
sI15807
F0.495
sI15809
F0.45
sI15811
F0.45274252674847026
sI15817
F1.0
sI15822
F0.5
sI15823
F0.5
sI15825
F0.5
sI15827
F0.5
sI15829
F0.4545
sI15831
F0.5
sI15833
F0.5
sI15836
F0.5
sI15837
F0.5
sI15838
F0.486
sI15841
F1.0
sI15843
F1.0
sI15853
F0.405
sI15859
F0.405
sI15861
F0.5
sI15862
I0
sI15876
F0.405
sI15877
F0.55
sI15879
I0
sI15883
F0.5
sI15885
F0.5
sI15887
F0.5
sI15890
I0
sI15891
F0.405
sI15892
F0.39837939291
sI15895
F1.0
sI15903
F0.55
sI15905
F0.45
sI15908
I0
sI15909
F0.5
sI15910
F0.55
sI15914
F0.5
sI15918
F0.5
sI15920
F0.36450000000000005
sI15921
F1.0
sI15928
F1.0
sI15931
F0.36450000000000005
sI15934
I0
sI15939
F0.5
sI15940
F0.5
sI15942
I0
sI15946
F0.1412147682405
sI15961
F0.45
sI15967
F0.2657205
sI15969
F0.5
sI15970
I0
sI15985
F0.29524500000000004
sI15987
F0.5
sI15988
F0.5
sI15993
F0.5
sI15994
F0.5
sI15996
F0.5
sI15998
F1.0
sI16000
F1.9630046385909056e-07
sI16006
F1.0
sI16038
F0.5005
sI16040
F0.40472325464375697
sI16043
F0.55
sI16044
F0.5
sI16045
F0.48351693610863505
sI16049
F0.5
sI16053
F0.495
sI16055
F0.45
sI16056
F0.505
sI16057
F0.55
sI16059
F0.5
sI16061
F0.5
sI16063
F0.45
sI16067
F0.5
sI16071
F0.5
sI16073
F0.505
sI16082
F0.55
sI16083
F0.55
sI16085
F0.5
sI16088
F0.5
sI16089
F0.5
sI16090
I0
sI16092
F0.5
sI16093
F0.5034008485945
sI16095
F0.5
sI16097
F0.5
sI16099
F0.4391580878409809
sI16101
F0.5
sI16103
F0.5
sI16106
F0.5
sI16107
F0.5
sI16108
F0.22258780962561364
sI16111
F0.4956354
sI16113
F0.5
sI16114
F0.6355000000000001
sI16121
F0.34267984371057614
sI16125
F0.5
sI16127
F0.29108605500000007
sI16136
I0
sI16137
F0.5
sI16139
F0.2657205
sI16142
I0
sI16143
F0.5
sI16144
F0.5
sI16154
F0.5
sI16166
F0.5
sI16170
F0.5
sI16172
F1.0
sI16173
F0.5
sI16175
F0.2657205
sI16178
I0
sI16179
F0.5
sI16180
F0.440866395
sI16184
I0
sI16188
I0
sI16191
F0.5
sI16192
F0.67195
sI16194
I0
sI16198
F0.29524500000000004
sI16200
F0.5070885817636317
sI16201
F0.4890929587831819
sI16203
F0.55
sI16205
F1.0
sI16207
F0.45
sI16209
F0.55
sI16211
F1.0
sI16215
F0.48893720805506136
sI16216
F1.7775110806667508e-06
sI16219
F0.29524500000000004
sI16221
F0.6046955010964
sI16222
F0.6355000000000001
sI16227
F0.5950000000000001
sI16229
F1.0
sI16233
F0.5
sI16234
I0
sI16242
F0.5950000000000001
sI16244
F1.0
sI16245
F0.405
sI16246
I0
sI16248
F0.704755
sI16250
F1.0
sI16255
F0.4944248115221096
sI16257
F0.5
sI16258
F0.6355000000000001
sI16263
F0.5
sI16264
F0.82566077995
sI16266
F0.5
sI16268
F1.0
sI16270
F7.722691798730255e-07
sI16276
F0.405
sI16283
F0.5
sI16287
F0.5
sI16289
F0.5
sI16298
F0.5
sI16299
F0.5
sI16301
F0.5
sI16304
F0.5
sI16305
F0.5
sI16306
F0.5
sI16316
F0.5
sI16328
F0.5
sI16332
F0.5
sI16334
F1.0
sI16335
F0.5005
sI16337
F0.5
sI16340
F0.5
sI16341
F0.5
sI16342
F0.45766984499999996
sI16346
F0.5
sI16350
F0.5
sI16352
F0.5
sI16353
F0.5
sI16354
F0.41293260945
sI16356
F0.5
sI16358
F0.5
sI16360
F0.1937102445
sI16370
F0.5950000000000001
sI16382
F0.5
sI16386
F0.5
sI16388
F1.0
sI16418
F0.5
sI16422
F0.5
sI16424
F0.5
sI16433
I0
sI16434
F0.5
sI16436
F0.5
sI16439
I0
sI16440
F0.5
sI16441
I0
sI16443
F0.55
sI16445
F1.0
sI16449
F0.5
sI16450
F0.5
sI16458
F0.5950000000000001
sI16460
F1.0
sI16461
F0.5
sI16462
F0.26830541528489044
sI16464
F0.704755
sI16466
F1.0
sI16468
F0.03988322153843625
sI16476
F0.5
sI16478
F1.0
sI16488
F0.5
sI16490
F1.0
sI16494
F0.5
sI16495
I0
sI16497
F0.505
sI16498
F0.2898145808845012
sI16500
F0.5
sI16502
F1.0
sI16504
F0.023550643486231218
sI16506
F0.55
sI16508
F1.0
sI16512
F0.5
sI16513
I0
sI16516
F0.03230540944613336
sI16518
F0.5
sI16519
I0
sI16524
F0.5
sI16525
F0.5
sI16527
F0.5
sI16529
F0.5
sI16531
F0.45
sI16533
F0.5
sI16535
F0.5
sI16538
F0.5
sI16539
F0.5
sI16540
F0.3346959485366841
sI16543
F1.0
sI16545
F1.0
sI16551
F0.5
sI16553
F0.5095000000000001
sI16556
F0.55
sI16557
F0.5
sI16558
I0
sI16562
F0.55
sI16566
F0.5
sI16568
F0.5
sI16569
F1.0
sI16574
F1.0
sI16579
F0.52939
sI16581
F0.5
sI16582
F0.55
sI16587
F0.5
sI16588
F0.5950000000000001
sI16590
F0.5
sI16592
F0.5
sI16594
F0.049238545109180555
sI16600
F1.0
sI16605
F0.5
sI16607
F0.2657205
sI16610
I0
sI16611
F0.5
sI16612
F0.55
sI16616
I0
sI16620
I0
sI16623
F1.0
sI16630
F1.0
sI16634
F0.5
sI16638
F0.5
sI16640
F0.5
sI16649
I0
sI16652
F1.0
sI16656
F1.0
sI16659
F0.5
sI16660
F0.6355000000000001
sI16662
I0
sI16666
F0.36450000000000005
sI16668
I0
sI16673
I0
sI16675
I0
sI16678
F1.0
sI16687
F0.45
sI16689
F0.5
sI16690
F0.5
sI16695
F0.5
sI16696
F0.5
sI16698
F0.5
sI16700
F1.0
sI16702
F8.58076866525584e-07
sI16708
F1.0
sI16713
F0.45
sI16714
I0
sI16716
F0.5
sI16718
F1.0
sI16722
F0.5
sI16724
F1.0
sI16728
F0.5
sI16729
I0
sI16734
F1.0
sI16744
F1.0
sI16750
F1.0
sI16752
F1.0
sI16768
F0.45895636263917233
sI16770
F0.4995
sI16771
F0.495
sI16776
F0.5
sI16777
F0.5
sI16779
F0.5
sI16781
F0.5
sI16783
F0.4974255
sI16789
F0.405
sI16794
F0.499995
sI16795
F0.5328951843924205
sI16797
F0.495
sI16799
F0.5
sI16801
F0.4995
sI16803
F0.49995
sI16805
F0.5
sI16808
F0.5
sI16809
F0.5
sI16810
F0.47061
sI16813
F0.5903301430450001
sI16815
F0.405
sI16816
F0.6355000000000001
sI16825
F0.45
sI16831
F0.5
sI16833
F0.5
sI16834
I0
sI16848
F0.45
sI16849
F0.3169882231605214
sI16851
I0
sI16855
F0.2629621982413272
sI16857
F0.476942615716869
sI16859
F0.40864500000000004
sI16862
I0
sI16863
F0.42757347860836203
sI16864
F0.41452398
sI16867
F0.2657205
sI16870
I0
sI16875
F0.5
sI16877
F0.5
sI16880
I0
sI16881
F0.5
sI16882
F0.1372425868858302
sI16886
F0.4905
sI16890
F0.48195
sI16892
F0.405
sI16893
F0.5
sI16894
F0.704755
sI16896
I0
sI16900
F0.0675425858836496
sI16903
F0.23914845
sI16906
I0
sI16911
F0.45
sI16912
F0.5
sI16914
I0
sI16918
F0.215233605
sI16933
F0.45
sI16939
F0.2657205
sI16941
F0.5
sI16942
I0
sI16957
F0.38758838455690686
sI16959
F0.5
sI16960
F0.5
sI16965
F0.42995629968552534
sI16966
F0.1812380973430732
sI16968
F0.5
sI16970
F1.0
sI16972
F0.002576887603660056
sI16978
F1.0
sI17010
F0.5
sI17011
F0.4749968777669093
sI17013
F0.5005
sI17015
F0.5
sI17017
F0.4519791418908195
sI17019
F0.5
sI17021
F0.5
sI17024
F0.5
sI17025
F0.5
sI17026
F0.43197624
sI17029
F0.4218701560574359
sI17031
F0.45
sI17032
F0.843094701955
sI17037
F0.5
sI17039
F0.5
sI17042
F0.5
sI17043
F0.5
sI17044
F0.37235413665
sI17048
F0.5
sI17052
F0.5
sI17054
F0.5
sI17055
F0.45
sI17056
F0.704755
sI17058
F0.5
sI17060
F0.5
sI17062
F0.215233605
sI17065
F0.43813015051545445
sI17067
F0.5
sI17068
F0.32420508780986995
sI17073
F0.5
sI17074
F0.495
sI17076
F0.5
sI17078
F1.0
sI17080
F0.23914845
sI17086
F0.12709329141645
sI17091
F0.5
sI17093
F0.5
sI17096
I0
sI17097
F0.5
sI17098
F0.456354
sI17102
F0.5
sI17106
F0.336341034627795
sI17108
F0.17433922005
sI17109
F0.5
sI17110
F0.14576676753018838
sI17112
I0
sI17116
F0.012515777524966205
sI17120
I0
sI17124
I0
sI17135
I0
sI17136
I0
sI17141
I0
sI17143
I0
sI17145
F0.493581784401
sI17146
F0.43581784401
sI17148
I0
sI17152
F0.17433922005
sI17154
F0.5
sI17156
F1.0
sI17160
F0.215233605
sI17161
I0
sI17164
F1.9933617395052785e-06
sI17167
I0
sI17173
F0.4473477732738678
sI17175
F0.505
sI17176
F0.55
sI17181
F0.5
sI17182
F0.3162940796550052
sI17184
F0.55
sI17186
F1.0
sI17188
F0.005387631832152908
sI17194
F1.0
sI17199
F0.5
sI17200
F0.6355000000000001
sI17202
F0.5
sI17204
F1.0
sI17206
F0.215233605
sI17208
F0.7608515499999999
sI17210
F1.0
sI17214
F0.36450000000000005
sI17215
I0
sI17218
F1.0
sI17220
F1.0
sI17230
F0.1412147682405
sI17236
F0.029074868501520024
sI17238
F0.5
sI17239
I0
sI17257
F0.36450000000000005
sI17263
F0.45
sI17265
F0.5
sI17266
I0
sI17281
F0.4978305
sI17283
F0.5
sI17284
F0.5
sI17289
F0.4995
sI17290
F0.478305
sI17292
F0.5
sI17294
F0.5
sI17296
F0.215233605
sI17302
F1.0
sI17335
F0.2657205
sI17338
I0
sI17343
F0.45
sI17344
F0.5
sI17346
I0
sI17350
F0.17433922005
sI17361
F0.5
sI17362
F0.5
sI17364
I0
sI17368
F0.0675425858836496
sI17370
F0.495
sI17372
F0.45
sI17375
I0
sI17376
F0.405
sI17377
I0
sI17380
F1.0
sI17398
F0.5
sI17401
I0
sI17446
F0.5
sI17452
F0.017168419101462558
sI17454
F0.45
sI17455
I0
sI17500
F0.405
sI17506
F0.29524500000000004
sI17508
F0.5
sI17509
I0
sI17524
F0.45
sI17526
F0.5135500000000001
sI17527
F0.5
sI17532
F0.5
sI17533
F0.5
sI17535
F0.55
sI17537
F0.5
sI17539
F0.45
sI17545
F0.5
sI17578
F0.392296008651523
sI17580
F0.4528699011262481
sI17581
F0.6355000000000001
sI17586
F0.45
sI17587
F0.5
sI17589
F0.5950000000000001
sI17591
F0.5
sI17593
F0.156905298045
sI17599
F0.526085155
sI17604
F0.45
sI17605
F0.5
sI17607
F0.67195
sI17609
F0.5
sI17611
F0.5
sI17613
F0.5
sI17615
F0.45
sI17618
F0.5
sI17619
F0.45
sI17620
F0.5
sI17623
F0.5
sI17625
F0.5
sI17626
F0.5
sI17635
F0.23914845
sI17641
F0.5
sI17643
F0.5
sI17644
I0
sI17689
F0.5
sI17695
F0.5
sI17697
F0.5
sI17698
I0
sI17740
F0.4986
sI17742
F0.5
sI17743
F0.5
sI17748
F0.5095000000000001
sI17749
F0.5
sI17751
F0.55
sI17753
F0.5
sI17755
F0.5
sI17761
F0.5
sI17766
F0.45
sI17767
F0.5
sI17769
F0.55
sI17771
F0.5
sI17773
F0.405
sI17775
F0.55
sI17777
F0.5
sI17780
F0.5
sI17781
F0.5
sI17782
F0.5
sI17785
F0.5
sI17787
F0.5
sI17788
F0.5
sI17797
F0.45
sI17803
F0.5
sI17805
F0.45
sI17806
I0
sI17820
F0.3641355
sI17821
F0.5
sI17823
F0.55
sI17825
F0.5
sI17827
F0.36450000000000005
sI17829
F0.5
sI17831
F0.2657205
sI17834
F0.5
sI17835
F0.5
sI17836
F0.5
sI17839
F0.00019650517437879908
sI17841
F0.5
sI17842
F0.7608515499999999
sI17847
I0
sI17852
I0
sI17854
I0
sI17858
I0
sI17862
I0
sI17866
I0
sI17868
I0
sI17875
F0.498645
sI17877
F0.505
sI17878
F0.55
sI17883
F0.36450000000000005
sI17884
F0.5
sI17886
F0.5
sI17888
F0.5
sI17890
F0.215233605
sI17896
F0.00038677700507271415
sI17905
F0.405
sI17911
F0.45
sI17913
F0.5
sI17914
I0
sI17929
F0.5
sI17931
F0.5
sI17932
F0.5
sI17937
F0.5
sI17938
F0.5
sI17940
F0.5
sI17942
F1.0
sI17944
F1.0
sI17950
F0.45
sI18013
F0.5
sI18019
F0.45
sI18021
F0.5
sI18022
I0
sI18067
F0.405
sI18073
F0.259783605
sI18075
F0.5
sI18076
I0
sI18091
F0.5
sI18093
F0.5
sI18094
F0.5
sI18099
F0.5
sI18100
F0.55
sI18102
F0.5
sI18104
F0.36450000000000005
sI18106
F0.23914845
sI18112
F1.0
sI18226
F0.009098196257614617
sI18228
F0.4995
sI18229
F0.495
sI18234
F0.5
sI18235
F0.5
sI18237
F0.5
sI18239
F0.5
sI18241
F0.1937102445
sI18247
F0.38524500000000006
sI18252
F0.4995
sI18253
I0
sI18255
F0.5
sI18257
F0.5
sI18261
F0.5
sI18263
F0.5
sI18266
F0.5
sI18267
F0.5
sI18268
I0
sI18273
F0.5
sI18274
I0
sI18283
F0.405
sI18289
F0.002273731142740407
sI18291
F0.5
sI18292
I0
sI18306
F0.5
sI18307
F0.3214840958510862
sI18309
F0.3623607243083495
sI18311
F0.3058155000000001
sI18313
F0.2657205
sI18315
I0
sI18320
I0
sI18322
I0
sI18325
F0.24813819450000002
sI18327
F0.31721239537619167
sI18328
F0.67195
sI18333
F0.5
sI18335
F0.5
sI18338
F0.495
sI18339
F0.5
sI18340
I0
sI18344
I0
sI18348
I0
sI18351
F0.5
sI18352
I0
sI18354
F0.5950000000000001
sI18356
F0.45
sI18361
F0.23914845
sI18363
F0.29524500000000004
sI18364
F0.5
sI18370
I0
sI18372
I0
sI18382
F0.215233605
sI18391
F0.405
sI18397
F0.45
sI18399
F0.5
sI18400
I0
sI18417
F0.5
sI18418
I0
sI18423
F0.5
sI18424
I0
sI18426
F0.5
sI18428
F1.0
sI18468
F0.5
sI18469
F0.4905
sI18471
F0.5
sI18473
F0.5
sI18475
F0.45
sI18477
F0.5
sI18479
F0.5
sI18482
F0.5
sI18483
F0.5
sI18484
F0.5
sI18487
F0.45
sI18489
F0.5
sI18490
F0.5
sI18495
F0.495
sI18497
F0.5
sI18500
F0.5
sI18501
F0.5
sI18502
I0
sI18506
F0.5
sI18510
F0.5
sI18512
F0.5
sI18513
F0.45
sI18514
I0
sI18516
F0.5
sI18518
F0.5
sI18523
F0.48008441394135004
sI18525
F0.5
sI18526
F0.5
sI18531
F0.5
sI18532
F0.406342209609
sI18534
F0.5
sI18536
F0.5
sI18538
F0.1412147682405
sI18544
F0.17433922005
sI18549
F0.495
sI18551
F0.45
sI18554
F0.5
sI18555
F0.45
sI18556
F0.5
sI18560
I0
sI18564
I0
sI18567
F0.5
sI18568
F0.38261626235999996
sI18570
F0.2095076309359058
sI18572
F0.114383962274805
sI18574
F0.156905298045
sI18578
I0
sI18582
I0
sI18593
I0
sI18594
I0
sI18599
I0
sI18601
I0
sI18603
F0.45
sI18604
F0.48645
sI18606
F0.5
sI18608
F0.5
sI18610
F0.215233605
sI18612
I0
sI18617
I0
sI18619
I0
sI18622
F0.17433922005
sI18624
F0.114383962274805
sI18625
I0
sI18631
F0.45
sI18633
F0.505
sI18634
F0.5
sI18639
F0.5
sI18640
F0.5
sI18642
F0.5
sI18644
F1.0
sI18646
F1.0
sI18652
F0.1412147682405
sI18657
F0.5
sI18658
I0
sI18660
F0.55
sI18662
F1.0
sI18666
F0.5
sI18668
F1.0
sI18672
F1.0
sI18678
F0.5
sI18679
I0
sI18688
F0.007390441470717294
sI18694
F0.054709494565756175
sI18696
F0.5
sI18697
I0
sI18715
F0.405
sI18721
F0.405
sI18723
F0.5
sI18724
I0
sI18741
F0.5
sI18742
I0
sI18747
F0.5
sI18748
I0
sI18750
F0.5
sI18752
F0.5
sI18793
F0.23914845
sI18795
F0.301806
sI18796
F0.5
sI18802
I0
sI18804
I0
sI18814
F1.0
sI18819
F0.5
sI18820
I0
sI18822
F0.55
sI18824
F0.156905298045
sI18828
I0
sI18833
I0
sI18835
I0
sI18840
F1.0
sI18850
F0.5
sI18859
I0
sI18912
F0.5
sI18913
I0
sI18985
F1.0
sI18991
F1.0
sI18993
F1.0
sI19039
F1.0
sI19045
F1.0
sI19047
F1.0
sI19063
F1.0
sI19065
F1.0
sI19071
F1.0
sI19076
F1.0
sI19078
F1.0
sI19084
F1.0
sI19201
F1.0
sI19207
F1.0
sI19209
F1.0
sI19225
F1.0
sI19227
F1.0
sI19233
F1.0
sI19238
F1.0
sI19240
F1.0
sI19246
F1.0
sI19279
F1.0
sI19281
F1.0
sI19287
F1.0
sI19292
F1.0
sI19294
F1.0
sI19300
F1.0
sI19336
F1.0
sI19342
F1.0
sI19344
F1.0
sI19390
F1.0
sI19396
F1.0
sI19398
F1.0
sI19552
F1.0
sI19558
F1.0
sI19560
F1.0
s.