(dp0
I0
F0.9998838201851158
sI1
F0.9999496255612721
sI3
F0.5137080573628424
sI5
F0.5081020851678033
sI7
F0.9996096900163212
sI9
F0.5432135577486636
sI11
F0.5440984630555805
sI14
F0.5
sI15
F0.5488974443589418
sI16
F0.626974659959761
sI19
F0.9962446826293495
sI21
F0.5103186255027155
sI22
F0.3583335690647437
sI27
F0.5081627006098067
sI29
F0.5058282126779977
sI32
F0.499995
sI33
F0.5988664826671248
sI34
F0.9996913996464837
sI38
F0.49905
sI42
F0.50005
sI44
F0.5
sI45
F0.50870608243462
sI46
F0.5773206709743671
sI48
F0.50005
sI50
F0.5005
sI52
F0.9997462356069717
sI55
F0.9988293278922049
sI57
F0.6358738270698573
sI58
F0.9992697002395962
sI63
F0.5467718436121368
sI64
F0.5953770425670261
sI66
F0.5
sI68
F0.5
sI70
F0.6555623828867126
sI76
F0.9995664876295411
sI81
F0.5315455141612768
sI83
F0.5235533654542053
sI86
F0.5086
sI87
F0.5265634115348015
sI88
F0.5242187013418255
sI92
F0.4979835415
sI96
F0.5
sI98
F0.5
sI99
F0.5570835974065783
sI100
F0.6431180878518412
sI102
F0.5198791051
sI104
F0.55
sI106
F0.9999995895844949
sI110
F0.5387328661546417
sI114
F0.505
sI116
F0.5950000000000001
sI125
F0.5
sI126
F0.5135500000000001
sI128
F0.5950000000000001
sI131
F0.5
sI132
F0.55
sI133
F0.545610655
sI135
F0.5272607027231382
sI136
F0.5743498017384128
sI138
F0.50005
sI140
F0.55
sI142
F0.6355000000000001
sI144
F0.5
sI146
F0.5
sI149
F0.5
sI150
F0.5
sI151
F0.5
sI154
F0.9999657201933791
sI156
F0.55
sI157
F0.9996841098253926
sI163
F0.9978252318559097
sI165
F0.5046865409931114
sI166
F0.24790967643094838
sI171
F0.5173294309513006
sI172
F0.5099979464960285
sI174
F0.5125279500000001
sI176
F0.4905
sI178
F0.5185782120576294
sI184
F0.15971713369376703
sI189
F0.5094448020988422
sI190
F0.184060672566863
sI192
F0.4989663550000001
sI194
F0.49995
sI196
F0.9999921578797855
sI198
F0.4978571573141209
sI200
F0.5
sI203
F0.5
sI204
F0.49117157314120896
sI205
F0.08284020149457086
sI208
F0.7342795
sI210
F0.5
sI211
F0.13776096419849956
sI220
F0.9992722108285347
sI226
F0.9917883983658696
sI228
F0.55
sI229
F1.0
sI243
F0.5119754551489879
sI245
F0.5112609200572674
sI248
F0.5
sI249
F0.5139962886669165
sI250
F0.46399890845091035
sI254
F0.5729344439345496
sI258
F0.505
sI260
F0.5950000000000001
sI261
F0.5145799700022845
sI262
F0.5585032552624316
sI264
F0.4986
sI266
F0.5
sI268
F0.5738066621710087
sI272
F0.500446405
sI276
F0.49916862
sI278
F0.55
sI287
F0.5
sI288
F0.5090796640449999
sI290
F0.55
sI293
F0.5
sI294
F0.55
sI295
F0.5
sI297
F0.5051840418662453
sI298
F0.5059994043579992
sI300
F0.5
sI302
F0.5
sI304
F0.507146334996219
sI306
F0.5
sI308
F0.5950000000000001
sI311
F0.5
sI312
F0.5
sI313
F0.5039204328413868
sI316
F0.5629449714742252
sI318
F0.5
sI319
F0.4253834550388686
sI326
F0.49959622805500004
sI330
F0.5236864616749507
sI332
F0.55
sI341
F0.5
sI342
F0.5
sI344
F0.55
sI347
F0.5
sI348
F0.5950000000000001
sI349
F0.6851414314866758
sI359
F1.0
sI371
F1.0
sI375
F1.0
sI378
F0.49956839999999997
sI380
F0.49563069445
sI383
F0.45
sI384
F0.51098141478286
sI385
F0.5296451336294835
sI389
F0.5
sI393
F0.5
sI395
F0.5
sI396
F0.5
sI397
F0.6552381442868245
sI399
F0.5
sI401
F0.5
sI403
F0.7847663949999999
sI405
F0.5052258351481499
sI406
F0.47917754670912666
sI408
F0.49997385
sI410
F0.5
sI412
F0.3699527938746978
sI414
F0.5156194500000001
sI416
F0.5950000000000001
sI419
F0.45
sI420
F0.55
sI421
F0.04129148332992558
sI424
F0.5598348214870802
sI426
F0.5
sI427
F0.13604889971650788
sI432
F0.498747205
sI434
F0.48747205
sI437
F0.45
sI438
F0.48799305
sI439
F0.25331129950590003
sI443
F0.45
sI447
F0.45
sI449
F0.5
sI450
F0.48502449999999997
sI451
F0.45
sI453
F0.45
sI455
F0.5
sI457
F0.5
sI460
F0.5320574481010885
sI462
F0.4997385
sI463
F0.4825928695934387
sI468
F0.55
sI469
F0.5
sI471
F0.5
sI473
F0.5
sI475
F0.5950000000000001
sI481
F0.2916160888469387
sI487
F0.9996836526494958
sI489
F0.5093420412117734
sI490
F0.4682969192968881
sI495
F0.6632689598973176
sI496
F0.9998157055207172
sI498
F0.5
sI500
F0.5
sI502
F0.9999805939829929
sI508
F0.28179267568583016
sI513
F0.5075892620463339
sI514
F0.5243584228109441
sI516
F0.500095
sI518
F0.5
sI520
F0.9956360182159562
sI522
F0.5
sI524
F0.5
sI527
F0.5
sI528
F0.5
sI529
F0.5332656543839956
sI532
F0.5950000000000001
sI534
F0.5
sI535
F0.23914845
sI544
F0.996818657279432
sI550
F0.9845484228086836
sI552
F0.5
sI553
F1.0
sI567
F0.5380289327262416
sI568
F0.5836357520462303
sI570
F0.5122393349950001
sI572
F0.55
sI574
F0.6355000000000001
sI576
F0.5
sI578
F0.5
sI581
F0.5
sI582
F0.5
sI583
F0.9999854712341826
sI586
F0.9992722108285347
sI588
F0.55
sI589
F0.215233605
sI594
F0.4995
sI596
F0.5378190371852941
sI599
F0.5613506811376806
sI600
F0.5
sI601
F0.5
sI605
F0.505
sI609
F0.5
sI611
F0.55
sI612
F0.5
sI613
F0.45
sI615
F0.5
sI617
F0.67195
sI619
F0.6355000000000001
sI622
F0.6355000000000001
sI624
F0.55
sI625
F0.5
sI630
F0.5
sI631
F0.5
sI633
F0.5
sI635
F0.5
sI637
F0.999998385376991
sI643
F0.9981214489369318
sI652
F0.5950000000000001
sI658
F0.9996867106258911
sI660
F0.55
sI661
F1.0
sI676
F0.6355000000000001
sI678
F0.5
sI679
F0.505
sI684
F0.5
sI685
F0.5
sI687
F0.5
sI689
F0.5
sI691
F0.5950000000000001
sI697
F0.5
sI729
F0.547458100018712
sI731
F0.5491552051091073
sI734
F0.49834
sI735
F0.5481885093368156
sI736
F0.5478974953694531
sI740
F0.504
sI744
F0.5112962562625218
sI746
F0.55
sI747
F0.5500614573070894
sI748
F0.6610903274055009
sI750
F0.5
sI752
F0.5
sI754
F0.67195
sI758
F0.4995
sI762
F0.5
sI764
F0.495
sI773
F0.5
sI774
F0.5
sI776
F0.5
sI779
F0.5
sI780
F0.5
sI781
F1.0
sI783
F0.5572477183283228
sI784
F0.49881484355963046
sI786
F0.5000455
sI788
F0.500455
sI790
F0.552150857593871
sI792
F0.497870919
sI794
F0.55
sI797
F0.5
sI798
F0.55
sI799
F0.5
sI802
F0.686753423420457
sI804
F0.5
sI805
F0.4740191207267814
sI812
F0.4974615
sI816
F0.5796003441547473
sI818
F0.5950000000000001
sI827
F1.0
sI828
F0.5
sI830
F0.49319999999999997
sI833
F0.50445
sI834
F0.6092952328404382
sI835
F0.6839380035875944
sI845
F0.5
sI857
F0.45
sI861
F0.5
sI863
I0
sI864
F0.505
sI866
F0.55
sI869
F0.5
sI870
F0.6355000000000001
sI871
F0.6417391206569499
sI875
F1.0
sI879
F1.0
sI882
F0.5
sI883
F0.49747303115999997
sI885
F0.5
sI887
F0.55
sI889
F0.7608515499999999
sI891
F0.5475685265418619
sI892
F0.6521574535290249
sI894
F0.4991445
sI896
F0.5
sI898
F0.8587852317595001
sI900
F0.49909995
sI902
F0.495
sI905
F0.45
sI906
F0.5042400044080959
sI907
F0.09265100944259205
sI910
F0.82566077995
sI912
F0.5
sI913
F0.13752442274555282
sI918
F0.5029494863447681
sI920
F0.4574484588792327
sI923
F0.405
sI924
F0.55
sI925
F1.0
sI929
F0.45
sI933
F0.45
sI935
F0.5
sI936
F0.55
sI937
F1.0
sI939
F0.5
sI941
F0.5
sI946
F0.5136047508418959
sI948
F0.5
sI949
F0.29524500000000004
sI954
F0.48685459499999995
sI955
F0.29524500000000004
sI957
F0.45
sI959
F0.5
sI961
F0.5
sI967
F0.08254944909731897
sI974
F0.4996
sI978
F0.5
sI980
F0.5
sI989
F0.505
sI990
F0.5
sI992
F0.5
sI995
F0.5
sI996
F0.5
sI997
F0.5
sI1007
F0.45
sI1019
F0.5
sI1023
F0.5
sI1025
I0
sI1026
F0.5
sI1028
F0.5
sI1031
F0.5
sI1032
F0.5
sI1033
F0.501011654981905
sI1037
F0.5
sI1041
F0.505
sI1043
F0.5
sI1044
F0.5
sI1045
F0.5
sI1047
F0.5
sI1049
F0.5
sI1051
F0.50761479511
sI1061
F0.5
sI1073
F0.45
sI1077
F0.5
sI1079
I0
sI1109
F0.50378995
sI1113
F0.4995
sI1115
F0.5
sI1124
F1.0
sI1125
F0.5
sI1127
F0.494155
sI1130
F0.5076
sI1131
F0.495
sI1132
F0.5
sI1134
F0.499995
sI1136
F0.5
sI1139
F0.5
sI1140
F0.5
sI1141
F0.23914845
sI1145
F0.45
sI1149
F0.5
sI1151
F0.5
sI1152
F0.5
sI1153
F0.6211039548482397
sI1155
F0.5
sI1157
F0.5
sI1159
F0.704755
sI1163
F0.405
sI1167
F0.45
sI1169
F0.5
sI1178
F0.5
sI1179
F0.505
sI1181
F0.5
sI1184
F0.5
sI1185
F0.5
sI1186
F1.0
sI1188
F0.5
sI1189
F0.5046989579849521
sI1191
F0.5
sI1193
F0.5
sI1195
F0.4445372874506393
sI1197
F0.499995
sI1199
F0.5
sI1202
F0.5
sI1203
F0.5
sI1204
F0.36450000000000005
sI1207
F0.4953708326768615
sI1209
F0.5
sI1210
F0.05093239322351593
sI1215
F0.5397018398505955
sI1216
F0.5756070037926297
sI1218
F0.500095
sI1220
F0.5
sI1222
F0.6355000000000001
sI1224
F0.5
sI1226
F0.5
sI1229
F0.5
sI1230
F0.55
sI1231
F0.5817057085450001
sI1234
F0.67195
sI1236
F0.5005
sI1237
F0.23914845
sI1242
F0.5187086641912776
sI1244
F0.504660433105
sI1247
F0.4986
sI1248
F0.55
sI1249
F1.0
sI1253
F0.50886145
sI1257
F0.5
sI1259
F0.55
sI1260
F0.55
sI1261
F1.0
sI1263
F0.5
sI1265
F0.5
sI1270
F0.6201224342326538
sI1272
F0.5005
sI1273
F0.45
sI1278
F0.5
sI1279
F0.45
sI1281
F0.5
sI1283
F0.5
sI1285
F0.6355000000000001
sI1291
F0.47097449999999996
sI1296
F0.5
sI1298
F0.5
sI1301
F0.5
sI1302
F0.5950000000000001
sI1303
F0.5
sI1307
F1.0
sI1311
F1.0
sI1314
F0.5
sI1315
F0.36450000000000005
sI1317
F0.45
sI1319
F0.5
sI1321
F0.7342795
sI1325
F0.505
sI1329
F0.5
sI1331
F0.5
sI1340
F1.0
sI1341
F0.5
sI1343
F0.5
sI1346
F0.405
sI1347
F0.5
sI1348
F1.0
sI1350
F0.5
sI1351
F0.6887492445047817
sI1353
F0.505
sI1355
F0.55
sI1357
F0.7608515499999999
sI1359
F1.0
sI1364
F1.0
sI1366
F1.0
sI1369
F0.7847663949999999
sI1371
F0.5
sI1372
F0.36450000000000005
sI1378
F0.82566077995
sI1380
F0.5
sI1381
F0.5
sI1386
F0.5
sI1387
F0.5
sI1389
F0.5
sI1391
F0.5
sI1393
F0.67195
sI1399
F0.67195
sI1404
F0.67195
sI1405
F1.0
sI1407
F0.5
sI1409
F0.5
sI1413
F0.5
sI1415
F0.495145
sI1418
F0.45
sI1419
F0.5
sI1420
F1.0
sI1425
F0.5
sI1426
F1.0
sI1435
I0
sI1441
I0
sI1443
I0
sI1459
F0.9999897174692415
sI1461
F0.5503816148585436
sI1462
F0.999980590946552
sI1467
F0.5605674838077623
sI1468
F0.6396391665124799
sI1470
F0.505
sI1472
F0.5
sI1474
F0.6823789274414409
sI1480
F0.9999995443604494
sI1485
F0.5056406648999999
sI1486
F0.2014674783992309
sI1488
F0.5
sI1490
F0.49995
sI1492
F0.9999780411996035
sI1494
F0.5
sI1496
F0.5
sI1499
F0.5
sI1500
F0.5
sI1501
F0.28709672427278843
sI1504
F0.6095436319969593
sI1506
F0.5
sI1507
F0.03025744303864969
sI1516
F0.9999977851536228
sI1522
F0.67195
sI1524
F0.5
sI1525
F1.0
sI1539
F0.5408131627891504
sI1540
F0.5875919627148399
sI1542
F0.5
sI1544
F0.55
sI1546
F0.6355000000000001
sI1548
F0.5000249588531864
sI1550
F0.49405775500000004
sI1553
F0.45
sI1554
F0.5
sI1555
F0.49909658301000004
sI1558
F0.999718039563302
sI1560
F0.55
sI1561
F0.9999997897867592
sI1566
F0.5125339350000001
sI1568
F0.5950000000000001
sI1571
F0.5
sI1572
F0.55
sI1573
F0.9999934847787776
sI1577
F0.5094595000000001
sI1581
F0.5
sI1583
F0.55
sI1584
F0.55
sI1585
F0.6919676707252219
sI1587
F0.5
sI1589
F0.5
sI1591
F0.997680801156706
sI1594
F0.67195
sI1596
F0.5
sI1597
F0.5257450000000001
sI1602
F0.5
sI1603
F0.5
sI1605
F0.5
sI1607
I0
sI1609
F0.55
sI1615
F0.9999892426334506
sI1624
F0.9999750100209734
sI1630
F0.9996519006954345
sI1632
F0.55
sI1633
F1.0
sI1648
F0.14757267012639738
sI1650
F0.49735
sI1651
F0.07213714944190776
sI1656
F0.5
sI1657
F0.15462002143608733
sI1659
F0.5095000000000001
sI1661
F0.5
sI1663
F0.04031611628277938
sI1669
I0
sI1701
F0.5167738389368041
sI1702
F0.5024327698272714
sI1704
F0.497556
sI1706
F0.5
sI1708
F0.50095
sI1710
F0.4995
sI1712
F0.5950000000000001
sI1715
F0.5
sI1716
F0.55
sI1717
F0.5094145
sI1720
F0.5959131844659749
sI1722
F0.4905
sI1723
F0.0056554316714565595
sI1728
F0.5011025141845931
sI1730
F0.55
sI1733
F0.4995
sI1734
F0.5
sI1735
F0.35378670610649987
sI1739
F0.5
sI1743
F0.5
sI1745
F0.5
sI1746
F0.67195
sI1747
F0.5
sI1749
F0.45
sI1751
F0.5
sI1753
F0.55
sI1756
F0.5052601
sI1758
F0.5
sI1759
F0.5055035539905575
sI1764
F0.5
sI1765
F0.5
sI1767
F0.5
sI1769
I0
sI1771
F0.5950000000000001
sI1777
F0.5055950443395267
sI1782
F0.504137837102445
sI1784
F0.55
sI1787
F0.5
sI1788
F0.55
sI1789
F0.5
sI1793
F0.45
sI1797
F0.505
sI1799
F0.55
sI1800
F0.55
sI1801
F0.7014576352385058
sI1803
F0.5
sI1805
F0.5
sI1807
F0.7847663949999999
sI1811
F1.0
sI1815
F1.0
sI1826
F1.0
sI1827
F1.0
sI1832
F1.0
sI1834
F1.0
sI1836
F0.5004616710244499
sI1837
F0.5004497102444999
sI1839
F0.5
sI1841
I0
sI1843
F0.5950000000000001
sI1845
F0.5
sI1847
I0
sI1851
F0.5
sI1852
F0.5
sI1855
F0.7847663949999999
sI1857
F0.5
sI1858
F0.5559504433952676
sI1864
F0.5126425489
sI1866
F0.5
sI1867
F0.405
sI1872
F0.55
sI1873
F0.5549397445000002
sI1875
F0.5
sI1877
F0.5
sI1879
F0.55
sI1885
I0
sI1890
F0.4616586047582082
sI1891
F0.07504731764849956
sI1893
F0.405
sI1895
F0.495
sI1897
F0.1969815149619979
sI1899
F0.43304804140365555
sI1901
F0.55
sI1904
F0.5
sI1905
F0.5950000000000001
sI1906
F0.021753427621048982
sI1909
I0
sI1911
I0
sI1921
F0.55
sI1927
F0.67195
sI1929
F0.5
sI1930
F1.0
sI1948
F0.9998651391972047
sI1954
F0.9999691481740413
sI1956
F0.5
sI1957
F1.0
sI1972
F0.5265094425660852
sI1974
F0.50095
sI1975
F0.5095000000000001
sI1980
F0.5
sI1981
F0.5686842162637059
sI1983
F0.5
sI1985
F0.5
sI1987
F0.6189298296814871
sI1993
F0.5
sI2026
F0.6355000000000001
sI2028
F0.55
sI2029
F0.505
sI2034
F0.5
sI2035
F0.5465984500000002
sI2037
F0.5
sI2039
F0.5
sI2041
F0.9999999989883115
sI2047
F0.9999999999999996
sI2052
F0.49997115000000003
sI2053
F0.5
sI2055
F0.5
sI2057
F0.6355000000000001
sI2059
F0.999998385376991
sI2061
F0.49912694999999996
sI2063
F0.4995
sI2066
F0.495
sI2067
F0.5005
sI2068
F0.4773133511505
sI2071
F0.7847663949999999
sI2073
F0.5
sI2074
F0.06371156519972224
sI2083
F0.5950000000000001
sI2089
F0.6355000000000001
sI2091
F0.5
sI2092
F1.0
sI2137
F0.55
sI2143
F0.67195
sI2145
F0.55
sI2146
F1.0
sI2187
F0.5095614176417376
sI2189
F0.5082323589779978
sI2192
F0.5010470675665155
sI2193
F0.5151979734476745
sI2194
F0.5021016556696475
sI2198
F0.4999995
sI2202
F0.5000394390345
sI2204
F0.499995
sI2205
F0.5441772907951954
sI2206
F0.5069923325538341
sI2208
F0.49959206029524084
sI2210
F0.5
sI2212
F0.5133994285727065
sI2216
F0.5
sI2220
F0.5
sI2222
F0.5
sI2231
F0.49995
sI2232
F0.4995
sI2234
F0.5
sI2237
F0.5095000000000001
sI2238
F0.5
sI2239
F0.505
sI2241
F0.5051802565
sI2242
F0.49895140249685876
sI2244
F0.5
sI2246
F0.5950000000000001
sI2248
F0.50364190964403
sI2250
F0.5
sI2252
F0.5
sI2255
F0.5
sI2256
F0.499993890345
sI2257
F0.49993890345
sI2260
F0.510050035
sI2262
F0.55
sI2263
F0.3758951371086331
sI2270
F0.4995
sI2274
F0.5
sI2276
F0.495
sI2285
F0.5
sI2286
F0.5
sI2288
F0.5
sI2291
F1.0
sI2292
F0.5
sI2293
F0.5456430994774968
sI2303
F0.5
sI2315
F0.5
sI2319
F0.5
sI2321
I0
sI2322
F0.5098697200000001
sI2324
F0.55
sI2327
F1.0
sI2328
F0.5045651200000001
sI2329
F0.50718632461515
sI2333
F0.5
sI2337
F0.5
sI2339
F0.5
sI2340
F0.55
sI2341
F0.5465984500000001
sI2343
F1.0
sI2347
F0.6355000000000001
sI2349
F0.5167254657161054
sI2350
F0.5495020672790574
sI2352
F0.4995
sI2354
F0.4846736555266671
sI2356
F0.5892991661192124
sI2358
F0.49985705655
sI2360
F0.5
sI2363
F0.45
sI2364
F0.5
sI2365
F0.5353650113601163
sI2368
F0.57852852034847
sI2370
F0.48859736500727713
sI2371
F0.13013036918798165
sI2376
F0.5105710504304425
sI2378
F0.5293223986761735
sI2381
F0.44955
sI2382
F0.506753976599436
sI2383
F0.4760828212859298
sI2387
F0.5
sI2391
F0.49721573141208947
sI2393
F0.5
sI2394
F0.5116982634999999
sI2395
F0.36450000000000005
sI2397
F0.45
sI2399
F0.5
sI2401
F0.5
sI2404
F0.5227443641124688
sI2406
F0.5
sI2407
F0.36450000000000005
sI2412
F0.5
sI2413
F0.405
sI2415
F0.5
sI2417
F0.5
sI2419
F0.4633230417515184
sI2425
F0.2524816531593542
sI2432
F0.5
sI2436
F0.4999995
sI2438
F0.5
sI2447
F0.5
sI2448
F0.500095
sI2450
F0.5
sI2453
F0.5
sI2454
F0.5
sI2455
F0.5
sI2465
F0.5
sI2477
F0.5
sI2481
F0.5
sI2483
I0
sI2484
F0.499545
sI2486
F0.5
sI2489
F0.5
sI2490
F0.5
sI2491
F0.5
sI2495
F0.5
sI2499
F0.5
sI2501
F0.5
sI2502
F0.5
sI2503
F0.5
sI2505
F0.5
sI2507
F0.5
sI2509
F0.5
sI2519
F0.5
sI2531
F0.5
sI2535
F0.5
sI2537
I0
sI2567
F0.405
sI2571
F0.5
sI2573
F0.5
sI2582
F0.5
sI2583
F0.5
sI2585
F0.5
sI2588
F1.0
sI2589
F0.5
sI2590
F0.5
sI2592
F0.49829547015
sI2594
F0.5
sI2597
F0.45
sI2598
F0.5
sI2599
F0.3090860024296067
sI2603
F0.5
sI2607
F0.5
sI2609
F0.5
sI2610
F0.5
sI2611
F0.405
sI2613
F0.45
sI2615
F0.5
sI2617
F0.5882969724614537
sI2621
F0.405
sI2625
F0.496935
sI2627
F0.5
sI2636
F0.5
sI2637
F0.45
sI2639
F0.5
sI2642
F0.5
sI2643
F0.48195
sI2644
F0.32805000000000006
sI2646
F0.5
sI2647
F0.5364532367748385
sI2649
F0.5
sI2651
F0.5
sI2653
F0.5855330110981073
sI2655
F0.5
sI2657
F0.5
sI2660
F0.5
sI2661
F0.5
sI2662
F0.4388409368248709
sI2665
F0.476703400925032
sI2667
F0.5
sI2668
F0.114383962274805
sI2673
F0.5080578798544081
sI2674
F0.49890960406815865
sI2676
F0.5041997826709499
sI2678
F0.55
sI2680
F0.5051799963077598
sI2682
F0.5
sI2684
F0.5
sI2687
F0.5
sI2688
F0.5
sI2689
F0.5261775829213958
sI2692
F0.5052984494500001
sI2694
F0.55
sI2695
F0.23914845
sI2700
F0.5
sI2702
F0.5
sI2705
F0.5
sI2706
F0.5
sI2707
F0.5
sI2711
F0.5
sI2715
F0.5
sI2717
F0.5
sI2718
F0.5
sI2719
F0.5
sI2721
F0.5
sI2723
F0.55
sI2725
F0.5
sI2728
F0.5117010454045
sI2730
F0.5
sI2731
F0.45
sI2736
F0.5
sI2737
F0.45
sI2739
F0.5
sI2741
F0.5
sI2743
F0.5753570802260535
sI2749
F0.5950000000000001
sI2754
F0.5144740160864474
sI2756
F0.55
sI2759
F1.0
sI2760
F0.5009556109813017
sI2761
F0.5
sI2765
F0.5
sI2769
F0.5000623442366849
sI2771
F0.5
sI2772
F0.55
sI2773
F0.5
sI2775
F1.0
sI2779
F0.6355000000000001
sI2783
F0.5037884285500001
sI2787
F0.5
sI2789
F0.492140755
sI2798
F0.501355
sI2799
F0.5
sI2801
F0.55
sI2804
F1.0
sI2805
F0.5
sI2806
F0.5
sI2808
F0.55
sI2809
F0.5545995895000001
sI2811
F1.0
sI2815
F0.5950000000000001
sI2817
F0.5
sI2819
F0.5
sI2822
F1.0
sI2823
F0.5
sI2824
F0.7105864343637971
sI2827
F0.67195
sI2830
F1.0
sI2836
F0.5667802899721137
sI2838
F0.49157628299999995
sI2839
F0.45
sI2844
F0.495
sI2845
F0.29524500000000004
sI2847
F0.45
sI2849
F0.5
sI2851
F0.5671563038110654
sI2857
F0.4905
sI2862
F0.511928377500853
sI2863
F0.6243349767004645
sI2865
F0.497854755
sI2867
F0.4915485
sI2869
F0.67195
sI2871
F0.5
sI2873
F0.5
sI2876
F0.45
sI2877
F0.5070175776692651
sI2878
F0.5727442948488929
sI2881
F0.7342795
sI2883
F0.5
sI2884
F0.45
sI2893
I0
sI2899
I0
sI2901
I0
sI2918
F0.580256650253525
sI2922
F0.505
sI2924
F0.5950000000000001
sI2933
F0.5
sI2934
F0.5
sI2936
F0.5950000000000001
sI2939
F0.505
sI2940
F0.55
sI2941
F0.5
sI2951
F0.5
sI2963
F0.5
sI2967
F0.45
sI2969
I0
sI2970
F0.5
sI2972
F0.6355000000000001
sI2975
F0.5
sI2976
F0.5
sI2977
F0.505
sI2981
F0.5
sI2985
F0.5
sI2987
F0.5
sI2988
F0.5
sI2989
F0.5
sI2991
F0.5
sI2993
F0.5
sI2995
F0.55
sI3005
F0.45
sI3017
F0.5
sI3021
F0.45
sI3023
I0
sI3053
F0.5
sI3057
F0.5
sI3059
F0.5
sI3068
F1.0
sI3069
F0.5
sI3071
F0.5
sI3074
F1.0
sI3075
F0.5
sI3076
F0.514
sI3078
F0.4992677272258793
sI3080
F0.6355000000000001
sI3083
F0.45
sI3084
F0.5950000000000001
sI3085
F0.5
sI3089
F0.5
sI3093
F0.5037078627872132
sI3095
F0.55
sI3096
F0.55
sI3097
F0.6406654412100827
sI3099
F0.46147762650008883
sI3101
F0.5950000000000001
sI3103
F0.704755
sI3107
F0.36450000000000005
sI3111
F0.5
sI3113
F0.5
sI3122
F0.5
sI3123
F0.538280155
sI3125
F0.5950000000000001
sI3128
F0.5
sI3129
F0.55
sI3130
F1.0
sI3132
F0.55
sI3133
F0.29524500000000004
sI3135
F0.5
sI3137
F0.5
sI3139
F0.5
sI3141
F0.45
sI3143
F0.5
sI3146
F0.5
sI3147
F0.55
sI3148
F0.08338590849833284
sI3151
F0.704755
sI3153
F0.5
sI3154
F0.04993859309869644
sI3167
F0.5
sI3179
F0.5
sI3183
F0.5
sI3185
I0
sI3215
F0.5
sI3219
F0.5
sI3221
F0.5
sI3230
F0.5
sI3231
F0.5
sI3233
F0.5
sI3236
F0.5
sI3237
F0.5
sI3238
F0.5
sI3302
F0.5
sI3314
F0.45
sI3318
F0.45
sI3320
I0
sI3323
F0.5
sI3327
F0.5
sI3329
F0.5
sI3338
F0.5
sI3339
F0.5
sI3341
F0.5
sI3344
F0.5
sI3345
F0.5
sI3346
F0.7316482237306137
sI3356
F0.5
sI3368
F0.5
sI3372
F0.405
sI3374
I0
sI3375
F0.5
sI3377
F0.5
sI3380
F0.5
sI3381
F0.5
sI3382
F0.4717185245705138
sI3386
F0.5
sI3390
F0.5
sI3392
F0.5
sI3393
F0.5
sI3394
F0.3897488686531245
sI3396
F0.5
sI3398
F0.5
sI3400
F0.9764493565137687
sI3402
F0.5
sI3404
F0.5950000000000001
sI3407
F0.5
sI3408
F0.5
sI3409
F0.505
sI3413
F0.505
sI3417
F0.5
sI3419
F0.5
sI3420
F0.5
sI3421
F0.45
sI3423
F0.5
sI3425
F0.55
sI3427
F0.5
sI3431
F0.4986
sI3435
F0.5
sI3437
F0.5
sI3446
F0.5
sI3447
F0.5
sI3449
F0.5
sI3452
F0.5
sI3453
F0.5
sI3454
F1.0
sI3456
F0.5
sI3457
F0.45
sI3459
F0.5
sI3461
F0.5
sI3463
F0.55
sI3465
F0.5
sI3467
F0.55
sI3470
F0.5
sI3471
F0.5
sI3472
F0.45
sI3475
F0.5
sI3477
F0.5
sI3478
F0.405
sI3485
F0.5
sI3489
F0.5
sI3491
F0.5
sI3500
F1.0
sI3501
F0.5
sI3503
F0.5
sI3506
F1.0
sI3507
F0.5
sI3508
F0.5
sI3518
F0.45
sI3530
F0.5
sI3534
F0.5
sI3536
I0
sI3537
F0.5
sI3539
F0.5
sI3542
F1.0
sI3543
F0.5
sI3544
F0.5
sI3548
F1.0
sI3552
F1.0
sI3555
F0.5
sI3556
F0.45
sI3558
F1.0
sI3562
F0.5950000000000001
sI3564
F0.55
sI3565
F0.45
sI3567
F0.405
sI3569
F0.5
sI3571
F0.5
sI3573
F0.45
sI3575
F0.5
sI3578
F0.5
sI3579
F0.55
sI3580
F0.1283642243306145
sI3583
F0.704755
sI3585
F0.5950000000000001
sI3586
F0.45
sI3591
F0.5
sI3593
F0.5
sI3596
F0.405
sI3597
F0.5
sI3598
F1.0
sI3602
F0.45
sI3606
F0.5
sI3608
F0.5
sI3609
F0.5950000000000001
sI3610
F1.0
sI3612
F0.5
sI3614
F0.5
sI3619
I0
sI3621
I0
sI3627
I0
sI3632
I0
sI3634
I0
sI3640
I0
sI3645
F0.5087696041372683
sI3646
F0.5190838345726325
sI3648
F0.50879295
sI3650
F0.55
sI3652
F0.5290385771705501
sI3654
F0.5
sI3656
F0.5
sI3659
F0.5
sI3660
F0.499995
sI3661
F0.499728295
sI3664
F0.519478921
sI3666
F0.55
sI3667
F0.010076564950261548
sI3672
F0.5
sI3674
F0.5
sI3677
F0.5
sI3678
F0.5
sI3679
F0.4005500210262037
sI3683
F0.5
sI3687
F0.49995
sI3689
F0.4995
sI3690
F0.495
sI3691
F0.5
sI3693
F0.5
sI3695
F0.5
sI3697
F0.5
sI3700
F0.514407268
sI3702
F0.55
sI3703
F0.514
sI3708
F0.5
sI3709
F0.5
sI3711
F0.5
sI3713
I0
sI3715
F0.4978414845
sI3721
F0.5950000000000001
sI3726
F0.5
sI3728
F0.5
sI3731
F1.0
sI3732
F0.5
sI3733
F0.5868016700500002
sI3737
F0.45
sI3741
F0.5
sI3743
F0.5
sI3744
F0.5
sI3745
F0.5647432600000001
sI3747
F1.0
sI3751
F0.67195
sI3755
F0.5
sI3759
F0.5
sI3761
F0.5
sI3770
F0.5
sI3771
F0.5
sI3773
F0.5
sI3776
F1.0
sI3777
F0.5
sI3778
F0.5407348990557408
sI3780
F0.5
sI3781
F0.552572605
sI3783
F1.0
sI3787
F0.704755
sI3789
F0.5
sI3791
I0
sI3795
F0.5
sI3796
F0.478414845
sI3799
F0.67195
sI3802
F1.0
sI3808
F0.5699724092309022
sI3810
F0.4968
sI3811
F0.36450000000000005
sI3816
F0.5
sI3817
F0.6464262343401219
sI3819
F0.504
sI3821
F0.495
sI3823
F0.48593091498717594
sI3829
I0
sI3834
F0.5118544169507517
sI3835
F0.08902798441052603
sI3837
F0.45
sI3839
F0.5
sI3841
F0.24448402437061834
sI3843
F0.5209750912698773
sI3845
F0.5032779880414523
sI3848
F0.45
sI3849
F0.543470353313205
sI3850
F0.024397570553180165
sI3853
I0
sI3855
I0
sI3865
F0.55
sI3871
F0.7342795
sI3873
F0.55
sI3874
F1.0
sI3888
F0.499591
sI3890
F0.5
sI3893
F0.5
sI3894
F0.5
sI3895
F0.4995
sI3899
F0.5
sI3903
F0.5
sI3905
F0.5
sI3906
F0.5
sI3907
F0.5
sI3909
F0.45
sI3911
F0.5
sI3913
F0.495
sI3917
F0.5
sI3921
F0.5
sI3923
F0.5
sI3932
F0.5
sI3933
F0.5
sI3935
F0.5
sI3938
F0.5
sI3939
F0.5
sI3940
F0.5
sI3942
F0.49591
sI3943
F0.50005
sI3945
F0.5
sI3947
I0
sI3949
F0.5
sI3951
F0.5
sI3953
I0
sI3957
F0.5
sI3958
F0.5
sI3961
F0.5005
sI3963
F0.5
sI3964
F0.5
sI3971
F0.5
sI3975
F0.5
sI3977
F0.5
sI3986
F0.5
sI3987
F0.5
sI3989
F0.5
sI3992
F1.0
sI3993
F0.5
sI3994
F0.5
sI4004
F1.0
sI4016
F1.0
sI4020
F1.0
sI4023
F0.5
sI4025
I0
sI4029
F0.5
sI4030
F0.5
sI4038
F0.5
sI4040
I0
sI4041
F0.5
sI4042
F0.505
sI4044
F1.0
sI4048
F0.55
sI4050
F0.5
sI4051
F0.45
sI4053
F0.45
sI4055
F0.5
sI4057
F0.14006695433486038
sI4059
F0.5
sI4061
F0.5
sI4064
F0.45
sI4065
F0.5
sI4066
F0.1503566982883479
sI4069
I0
sI4071
I0
sI4077
F0.405
sI4079
F0.5
sI4082
F0.45
sI4083
F0.5
sI4084
F0.049238545109180555
sI4088
F0.45
sI4092
F0.49094999999999994
sI4094
F0.55
sI4095
I0
sI4100
I0
sI4102
I0
sI4105
F0.5949516315204382
sI4107
F0.5
sI4108
F0.45
sI4113
F0.5
sI4114
F0.7284160862817766
sI4116
F0.5
sI4118
I0
sI4120
F0.9999999315542605
sI4126
I0
sI4132
F0.52308212014
sI4134
F0.5950000000000001
sI4135
F0.561080512495
sI4140
F0.5
sI4141
F0.5095000000000001
sI4143
F0.5
sI4145
F0.5
sI4147
F0.522438216189715
sI4153
F0.6355000000000001
sI4158
F0.5
sI4159
F0.5
sI4161
F0.5
sI4163
F0.5
sI4165
F0.4995
sI4167
F0.5
sI4169
F0.5
sI4172
F0.5
sI4173
F0.5
sI4174
F0.44057115
sI4177
F0.5
sI4179
F0.5
sI4180
F0.5
sI4189
F0.5950000000000001
sI4195
F0.55
sI4197
F0.5
sI4198
F1.0
sI4212
F0.55
sI4213
F0.5
sI4215
F1.0
sI4219
F0.704755
sI4221
F0.5
sI4223
F0.5
sI4226
F1.0
sI4227
F0.50062344236685
sI4228
F0.5062344236684999
sI4231
F0.67195
sI4234
F1.0
sI4239
F0.5
sI4241
F0.55
sI4244
F1.0
sI4245
F0.5
sI4246
F0.52615
sI4250
F0.5
sI4254
F0.5
sI4256
F0.405
sI4257
F0.5
sI4258
F0.405
sI4260
F1.0
sI4264
F0.6355000000000001
sI4267
F0.6355000000000001
sI4270
F1.0
sI4275
F0.5
sI4276
F0.5
sI4278
F1.0
sI4282
F0.8587852317595001
sI4297
F0.6355000000000001
sI4303
F0.7608515499999999
sI4305
F0.5
sI4306
F1.0
sI4321
F0.6378351107173443
sI4323
F0.5005
sI4324
F0.45
sI4329
F0.5438338003371803
sI4330
F0.7616891250064971
sI4332
F0.505
sI4334
F0.5
sI4336
F1.177060173560472e-06
sI4342
I0
sI4375
F0.9981830201100437
sI4377
F0.5027813759928184
sI4378
F0.5105240912429867
sI4383
F0.558405470416391
sI4384
F0.6224380175661527
sI4386
F0.5
sI4388
F0.5
sI4390
F0.6927713832799469
sI4396
F0.5228723182539825
sI4401
F0.5068748202291999
sI4402
F0.49912445956095003
sI4404
F0.4995
sI4406
F0.5
sI4408
F0.9994104907711131
sI4410
F0.5
sI4412
F0.5
sI4415
F0.5
sI4416
F0.5005
sI4417
F0.32805000000000006
sI4420
F0.5950000000000001
sI4422
F0.5
sI4423
F0.4995
sI4432
F0.9960724163943605
sI4438
F0.67195
sI4440
F0.5
sI4441
F1.0
sI4455
F0.5662144392438025
sI4456
F0.626395424849247
sI4458
F0.5
sI4460
F0.5005
sI4462
F0.6355000000000001
sI4464
F0.5
sI4466
F0.5
sI4469
F0.5
sI4470
F0.5
sI4471
F0.7760459931758146
sI4474
F0.9998907627497358
sI4476
F0.500455
sI4477
F0.505
sI4482
F0.5140497294999999
sI4484
F0.5950000000000001
sI4487
F0.5
sI4488
F0.55
sI4489
F0.505
sI4493
F0.5
sI4497
F0.505
sI4499
F0.5
sI4500
F0.55
sI4501
F0.51805
sI4503
F0.5
sI4505
F0.5
sI4507
F0.6355000000000001
sI4510
F0.5950000000000001
sI4512
F0.5005
sI4513
F0.521695
sI4518
F0.5
sI4519
F0.5
sI4521
F0.505
sI4523
F0.55
sI4525
F0.82566077995
sI4531
F0.9999999999957766
sI4540
F0.7608515499999999
sI4546
F0.999991286533095
sI4548
F0.55
sI4549
F1.0
sI4564
F0.67195
sI4566
F0.5
sI4567
F0.5
sI4572
F0.5
sI4573
F0.36450000000000005
sI4575
F0.5
sI4577
F0.5
sI4579
I0
sI4585
F0.5
sI4617
F0.5146251203647607
sI4618
F0.49840388416000003
sI4620
F0.5
sI4622
F0.5
sI4624
F0.5090653531945
sI4626
F0.49882499999999996
sI4628
F0.5950000000000001
sI4631
F0.5
sI4632
F0.5
sI4633
F0.45
sI4636
F0.55919253714859
sI4638
F0.5
sI4639
F0.49724376341716703
sI4644
F0.5
sI4646
F0.55
sI4649
F0.5
sI4650
F0.55
sI4651
F0.40905
sI4655
F0.5
sI4659
F0.5
sI4661
F0.5
sI4662
F0.55
sI4663
F0.5
sI4665
F0.5
sI4667
F0.5
sI4669
F0.55
sI4672
F0.50806675
sI4674
F0.5
sI4675
F0.5
sI4680
F0.5
sI4681
F0.5
sI4683
F0.5
sI4685
F0.5
sI4687
F0.55
sI4693
F0.50095
sI4698
F0.5304795242971039
sI4700
F0.55
sI4703
F0.5
sI4704
F0.55
sI4705
F0.545610655
sI4709
F0.5
sI4713
F0.5
sI4715
F0.5
sI4716
F0.55
sI4717
F0.64996343585245
sI4719
F0.5
sI4721
F0.5
sI4723
F0.8062897554999999
sI4727
F1.0
sI4731
F1.0
sI4742
F1.0
sI4743
F1.0
sI4748
F1.0
sI4750
F1.0
sI4752
F0.52300240399
sI4753
F0.5001355
sI4755
F0.5
sI4757
F0.5
sI4759
F0.5950000000000001
sI4761
F0.561346232995
sI4763
F0.5950000000000001
sI4766
F0.5
sI4767
F0.5950000000000001
sI4768
F0.5
sI4771
F0.8062897554999999
sI4773
F0.5
sI4774
F0.7056927324569936
sI4780
F0.5196180029285203
sI4782
F0.5
sI4783
F0.5417889230887449
sI4788
F0.55
sI4789
F0.23914845
sI4791
F0.5
sI4793
F0.5
sI4795
I0
sI4801
F0.5472604165545999
sI4806
F0.5
sI4807
F0.45
sI4809
F0.5
sI4811
F0.5
sI4813
I0
sI4815
F0.5
sI4817
F0.5
sI4820
F0.5
sI4821
I0
sI4825
F0.5
sI4827
F0.5
sI4828
F0.4545
sI4837
F0.6355000000000001
sI4843
F0.5
sI4845
F0.5
sI4846
F1.0
sI4864
F0.5950000000000001
sI4870
F0.9981214489369318
sI4872
F0.5
sI4873
F1.0
sI4888
F0.55
sI4890
F0.5
sI4891
F0.5
sI4896
F0.5
sI4897
F0.5
sI4899
F0.5
sI4901
F0.5
sI4903
F0.5950000000000001
sI4909
F0.5
sI4942
F0.67195
sI4944
F0.513031645
sI4945
F0.5459059
sI4950
F0.5
sI4951
F0.5095000000000001
sI4953
F0.5
sI4955
F0.5
sI4957
F0.999947752161834
sI4963
F0.5950000000000001
sI4968
F0.5026149999999999
sI4969
F0.5
sI4971
F0.5
sI4973
F0.5388423156653684
sI4975
F0.55
sI4977
F0.5
sI4979
F0.5
sI4982
F0.505
sI4983
F0.5
sI4984
F0.5418559
sI4987
F0.55
sI4989
F0.5
sI4990
F0.5
sI4999
F0.6355000000000001
sI5005
F0.55
sI5007
F0.5
sI5008
F1.0
sI5053
F0.5
sI5059
F0.5
sI5061
F0.5
sI5062
F1.0
sI5103
F0.6351608754110586
sI5104
F0.9980189264783736
sI5106
F0.5
sI5108
F0.5
sI5110
F0.9990016609444919
sI5112
F0.5
sI5114
F0.5
sI5117
F0.5
sI5118
F0.55
sI5119
F0.41400000000000003
sI5122
F0.996818657279432
sI5124
F0.5
sI5125
F0.5565191311241644
sI5130
F0.5
sI5132
F0.5
sI5135
F0.5
sI5136
F0.5
sI5137
F1.0
sI5141
F0.5
sI5145
F0.5
sI5147
F0.5
sI5148
F0.5
sI5149
F1.0
sI5151
F0.5
sI5153
F0.5
sI5158
F0.999552258158227
sI5160
F0.5
sI5161
F0.5365810845363604
sI5166
F0.5
sI5167
F0.999434041333715
sI5169
F0.5
sI5171
F0.5
sI5173
F0.9999995895844949
sI5179
F0.5844049370682085
sI5184
F0.5
sI5186
F0.5
sI5189
F0.505
sI5190
F0.6355000000000001
sI5191
F0.5095000000000001
sI5195
F1.0
sI5199
F1.0
sI5202
F0.5
sI5203
F0.5180500000000001
sI5205
F0.4995
sI5207
F0.4995
sI5209
F0.7608515499999999
sI5213
F0.5
sI5217
F0.5
sI5219
F0.5
sI5228
F1.0
sI5229
F0.5
sI5231
F0.5
sI5234
F0.5
sI5235
F0.5
sI5236
F1.0
sI5238
F0.5
sI5239
F0.5834491007455002
sI5241
F0.5
sI5243
F0.5
sI5245
F0.7608515499999999
sI5247
F1.0
sI5252
F1.0
sI5254
F1.0
sI5257
F0.67195
sI5259
F0.5
sI5260
F0.50608418163445
sI5266
F0.9999419468464822
sI5268
F0.499995
sI5269
F0.5221
sI5274
F0.5
sI5275
F0.23914845
sI5277
F0.5
sI5279
F0.5
sI5281
I0
sI5287
F0.6355000000000001
sI5292
F0.5950000000000001
sI5293
F1.0
sI5295
F0.5
sI5297
F0.5
sI5301
F0.5
sI5303
F0.5
sI5306
F0.5
sI5307
I0
sI5313
F0.5
sI5314
F1.0
sI5323
F0.5950000000000001
sI5329
F0.9984783736389147
sI5331
F0.5
sI5332
F1.0
sI5346
F0.4999995
sI5348
F0.5
sI5351
F0.5
sI5352
F0.5
sI5353
F0.45
sI5357
F0.5
sI5361
F0.5
sI5363
F0.5
sI5364
F0.5
sI5365
F0.5
sI5367
F0.5
sI5369
F0.5
sI5371
F0.5
sI5375
F0.5
sI5379
F0.5
sI5381
F0.5
sI5390
F0.5
sI5391
F0.5
sI5393
F0.5
sI5396
F0.5
sI5397
F0.5
sI5398
F1.0
sI5400
F0.499995
sI5401
F0.50014835155
sI5403
F0.5
sI5405
F0.5
sI5407
F0.5018499999999999
sI5409
F0.5
sI5411
F0.5
sI5414
F0.5
sI5415
F0.5
sI5416
F0.29862508950000005
sI5419
F0.5
sI5421
F0.5
sI5422
F0.47391484500000003
sI5429
F0.5
sI5433
F0.505
sI5435
F0.55
sI5444
F1.0
sI5445
F0.5
sI5447
F0.5
sI5450
F0.5
sI5451
F0.5
sI5452
F0.505
sI5462
F1.0
sI5474
F1.0
sI5478
F1.0
sI5481
F0.49995
sI5483
F0.55
sI5486
F0.5
sI5487
F0.5
sI5488
F0.514
sI5492
F1.0
sI5496
F1.0
sI5499
F0.4995
sI5500
F0.495
sI5502
F0.5
sI5504
F0.45
sI5506
F0.5950000000000001
sI5508
F0.49995
sI5509
F0.33769666134450005
sI5511
F0.4995
sI5513
F0.5
sI5515
I0
sI5517
F0.5
sI5519
F0.5
sI5522
F0.5
sI5523
I0
sI5527
F0.704755
sI5529
F0.5
sI5530
F0.6435731501199999
sI5535
F0.5
sI5537
F0.5
sI5540
F0.5
sI5541
I0
sI5546
F0.5
sI5552
I0
sI5553
F0.5
sI5554
F1.0
sI5556
F0.5
sI5558
F0.5
sI5563
F0.4940066591324283
sI5565
F0.5
sI5566
F0.4441794303212035
sI5571
F0.5
sI5572
F0.29524500000000004
sI5574
F0.5
sI5576
F0.5
sI5578
I0
sI5584
F0.012515777524966205
sI5590
F0.999947752161834
sI5592
F0.5
sI5593
F0.5180500000000001
sI5598
F0.5
sI5599
F0.5496818657279432
sI5601
F0.5
sI5603
F0.5
sI5605
F0.67195
sI5611
F0.6355000000000001
sI5616
F0.5950000000000001
sI5617
F1.0
sI5619
F0.5
sI5621
F0.5
sI5625
F0.5
sI5627
F0.55
sI5630
F0.5
sI5631
F0.5
sI5632
F1.0
sI5637
F0.5
sI5638
F1.0
sI5647
F0.5950000000000001
sI5653
F0.9999115178272859
sI5655
F0.5
sI5656
F1.0
sI5670
F0.5
sI5671
F0.51805
sI5673
F0.5
sI5675
F0.55
sI5677
F0.5950000000000001
sI5679
F1.0
sI5684
F1.0
sI5686
F1.0
sI5689
F0.6355000000000001
sI5691
F0.495
sI5692
F0.45
sI5697
F0.5
sI5699
F0.5
sI5702
F0.5740893856385678
sI5703
F0.5
sI5704
F1.0
sI5708
F1.0
sI5712
F1.0
sI5715
F0.5
sI5716
F1.0
sI5718
F0.5
sI5720
F0.23914845
sI5725
F0.7608515499999999
sI5727
F0.5
sI5728
F0.5
sI5734
F1.0
sI5736
F1.0
sI5746
F0.7342795
sI5755
F0.5950000000000001
sI5761
F0.5
sI5763
F0.5
sI5764
F1.0
sI5781
F0.5
sI5782
F1.0
sI5787
F0.5
sI5788
F1.0
sI5790
F0.5
sI5792
F0.5
sI5836
F0.9999817823052897
sI5842
F0.704755
sI5844
F0.5
sI5845
F1.0
sI5860
F0.492474269655
sI5862
F0.5
sI5863
F0.32805000000000006
sI5868
F0.5
sI5869
F0.45
sI5871
F0.5
sI5873
F0.5
sI5875
F0.495
sI5881
F0.474255
sI5914
F0.7342795
sI5916
F0.5
sI5917
F0.5
sI5922
F0.5005
sI5923
F0.5
sI5925
F0.5
sI5927
F0.5
sI5929
F0.843094701955
sI5935
F0.999999999992053
sI5940
F0.55
sI5941
F0.405
sI5943
F0.5
sI5945
F0.5
sI5947
F0.9990016609444919
sI5949
F0.5
sI5951
F0.55
sI5954
F0.5
sI5955
F0.5
sI5956
F0.45
sI5959
F0.7608515499999999
sI5961
F0.5
sI5962
F0.344230155
sI5971
F0.55
sI5977
F0.5
sI5979
F0.5
sI5980
F1.0
sI6025
F0.5
sI6031
F0.6355000000000001
sI6033
F0.5
sI6034
F1.0
sI6076
F0.5020525
sI6078
F0.5
sI6079
F0.405
sI6084
F0.5
sI6085
F0.405
sI6087
F0.5
sI6089
F0.5
sI6091
F0.5
sI6097
F0.4810840670858355
sI6102
F0.55
sI6103
F0.45
sI6105
F0.5
sI6107
F0.5
sI6109
F0.55
sI6111
F0.5
sI6113
F0.5
sI6116
F0.5
sI6117
F0.5
sI6118
F0.45
sI6121
F0.5
sI6123
F0.5
sI6124
F0.405
sI6133
F0.5
sI6139
F0.5
sI6141
F0.5
sI6142
F1.0
sI6156
F0.55
sI6157
F0.45
sI6159
F0.5
sI6161
F0.5
sI6163
F0.5950000000000001
sI6165
F0.5
sI6167
F0.5
sI6170
F0.5
sI6171
F0.5
sI6172
F0.5
sI6175
F0.8062897554999999
sI6177
F0.5
sI6178
F0.23403520273515005
sI6183
F1.0
sI6188
F1.0
sI6190
F1.0
sI6194
F1.0
sI6198
F1.0
sI6202
F1.0
sI6204
F1.0
sI6211
F0.55
sI6213
F0.5
sI6214
F0.5
sI6219
F0.6355000000000001
sI6220
F0.5
sI6222
F0.5
sI6224
I0
sI6226
F0.5
sI6232
F0.8970544339526756
sI6241
F0.5950000000000001
sI6247
F0.5950000000000001
sI6249
F0.5
sI6250
F1.0
sI6265
F0.5
sI6267
F0.5
sI6268
F0.5
sI6273
F0.55
sI6274
F0.5
sI6276
F0.5
sI6278
F0.5
sI6280
I0
sI6286
I0
sI6349
F0.55
sI6355
F0.6355000000000001
sI6357
F0.5
sI6358
F1.0
sI6403
F0.5950000000000001
sI6409
F0.6355000000000001
sI6411
F0.5
sI6412
F1.0
sI6427
F0.5
sI6429
F0.5
sI6430
F0.5
sI6435
F0.495
sI6436
F0.45
sI6438
F0.45
sI6440
F0.405
sI6442
F0.704755
sI6448
F0.67195
sI6561
F0.5357606352765208
sI6563
F0.5471851748769031
sI6566
F0.498959065
sI6567
F0.5118006618917346
sI6568
F0.6402835678433587
sI6572
F0.5650584639906309
sI6576
F0.505
sI6578
F0.704755
sI6579
F0.5757121707797491
sI6580
F0.9986166282924047
sI6582
F0.5
sI6584
F0.5
sI6586
F0.9998786252774842
sI6590
F0.4986
sI6594
F0.5
sI6596
F0.4905
sI6605
F0.5
sI6606
F0.5
sI6608
F0.5
sI6611
F0.5
sI6612
F0.5
sI6613
F0.5135500000000001
sI6615
F0.5230739878597024
sI6616
F0.5457204657228992
sI6618
F0.49914405
sI6620
F0.49889710000000004
sI6622
F0.7342795
sI6624
F0.5
sI6626
F0.5950000000000001
sI6629
F0.45
sI6630
F0.5
sI6631
F0.7394631774472449
sI6634
F0.9828315808985374
sI6636
F0.5
sI6637
F0.43023160868904003
sI6644
F0.497935
sI6648
F0.5
sI6650
F0.49195
sI6659
F0.505
sI6660
F0.5
sI6662
F0.5
sI6665
F0.5
sI6666
F0.5
sI6667
F1.0
sI6677
F0.5
sI6689
F0.5
sI6693
F0.5
sI6695
I0
sI6696
F0.5
sI6698
F0.5
sI6701
F0.5
sI6702
F0.5
sI6703
F1.0
sI6707
F0.5
sI6711
F0.5
sI6713
F0.55
sI6714
F0.5
sI6715
F1.0
sI6717
F0.5
sI6719
F0.5
sI6723
F0.558158766291448
sI6724
F0.9956984012490512
sI6726
F0.49867694999999995
sI6728
F0.5005
sI6730
F0.9831917115334945
sI6732
F0.5
sI6734
F0.5950000000000001
sI6737
F0.5
sI6738
F0.5
sI6739
F0.07646088968272423
sI6742
F0.9999907972514958
sI6744
F0.5
sI6745
F0.08870565702654216
sI6750
F0.4986758295
sI6752
F0.5005
sI6755
F0.5
sI6756
F0.5
sI6757
F0.2384745966869667
sI6761
F0.5
sI6765
F0.45
sI6767
F0.5
sI6768
F0.4997845
sI6769
F0.06026401523284901
sI6771
F0.45
sI6773
F0.5
sI6775
F0.67195
sI6778
F0.999978180531695
sI6780
F0.4914405
sI6781
F0.034009273448084194
sI6786
F0.5
sI6787
F0.13347226129801157
sI6789
F0.45
sI6791
F0.5
sI6793
F0.8587852317595001
sI6799
F0.321216526157724
sI6806
F0.49894081980750005
sI6810
F0.4995
sI6812
F0.5
sI6821
F1.0
sI6822
F0.498285
sI6824
F0.48965329926
sI6827
F0.497828754
sI6828
F0.495
sI6829
F0.49280399999999996
sI6839
F0.45
sI6851
F0.45
sI6855
F0.5
sI6857
I0
sI6858
F0.5
sI6860
F0.5
sI6863
F0.5
sI6864
F0.5
sI6865
F0.5221
sI6869
F1.0
sI6873
F1.0
sI6876
F0.5
sI6877
F0.51355
sI6879
F0.5
sI6881
F0.49450500000000003
sI6883
F0.5950000000000001
sI6893
F0.45
sI6905
F0.45
sI6909
F0.5
sI6911
I0
sI6941
F0.45
sI6945
F0.5
sI6947
F0.5
sI6956
F1.0
sI6957
F0.5
sI6959
F0.5
sI6962
F0.45
sI6963
F0.5
sI6964
F1.0
sI6966
F0.5
sI6968
F0.55
sI6971
F0.505
sI6972
F0.5
sI6973
F0.04056061438746831
sI6977
F1.0
sI6981
F1.0
sI6984
F0.5
sI6985
F0.0864032086024194
sI6987
F0.5
sI6989
F0.5005
sI6991
F0.462915
sI6995
F0.5095000000000001
sI6999
F0.45
sI7001
F0.5
sI7010
F1.0
sI7011
F0.45
sI7013
F0.5
sI7016
F0.5
sI7017
F0.5
sI7018
F0.36450000000000005
sI7020
F0.5
sI7021
F0.9999981718389104
sI7023
F0.499905
sI7025
F0.5
sI7027
F0.9999999967761175
sI7029
F1.0
sI7034
F1.0
sI7036
F1.0
sI7039
F0.4991185836398004
sI7041
F0.49905
sI7042
F0.06078832729528464
sI7047
F0.5356066704677132
sI7048
F0.6130073912845462
sI7050
F0.5
sI7052
F0.5
sI7054
F0.7342795
sI7056
F0.5
sI7058
F0.5958879098934223
sI7061
F0.49995
sI7062
F0.5
sI7063
F0.47467247238000004
sI7066
F0.9898622202047773
sI7068
F0.5
sI7069
F0.2624828838419789
sI7074
F0.5
sI7076
F0.5
sI7079
F0.5
sI7080
F0.5
sI7081
F0.5
sI7085
F0.5
sI7089
F0.5
sI7091
F0.5
sI7092
F0.5
sI7093
F0.5
sI7095
F0.5
sI7097
F0.5
sI7099
F0.55
sI7102
F0.704755
sI7104
F0.5
sI7105
F0.45
sI7110
F0.5
sI7111
F0.5
sI7113
F0.5
sI7115
F0.5
sI7117
F0.7847663949999999
sI7123
F0.55
sI7128
F0.505045
sI7130
F0.5005
sI7133
F0.5
sI7134
F0.55
sI7135
F1.0
sI7139
F0.49793561693550004
sI7143
F0.5
sI7145
F0.55
sI7146
F0.5
sI7147
F1.0
sI7149
F0.5
sI7151
F0.5
sI7157
F0.4995
sI7161
F0.5
sI7163
F0.5
sI7172
F0.5
sI7173
F0.5
sI7175
F0.495
sI7178
F0.5
sI7179
F0.5
sI7180
F1.0
sI7182
F0.5
sI7183
F1.0
sI7185
F0.5
sI7187
F0.5
sI7191
F0.5
sI7193
F0.55
sI7196
F0.5
sI7197
F0.5
sI7198
F1.0
sI7203
F0.5
sI7204
F1.0
sI7210
F0.9916245357483084
sI7212
F0.5
sI7213
F0.15836880653302376
sI7218
F0.5
sI7219
F0.18324896212583516
sI7221
F0.5
sI7223
F0.5
sI7225
F0.40253998544999997
sI7231
F0.20324565826918856
sI7236
F0.5
sI7237
F0.9481065982260782
sI7239
F0.5
sI7241
F0.5
sI7243
F0.9999948547849272
sI7245
F0.5
sI7247
F0.5
sI7250
F0.5
sI7251
F0.5
sI7252
F0.2657205
sI7255
F0.9999999973886552
sI7257
F0.5
sI7258
F0.08012482173387815
sI7267
I0
sI7273
I0
sI7275
I0
sI7292
F0.505
sI7296
F0.5
sI7298
F0.5
sI7307
F0.5
sI7308
F0.5
sI7310
F0.5
sI7313
F0.5
sI7314
F0.5
sI7315
F0.5257450000000001
sI7325
F0.5
sI7337
F0.5
sI7341
F0.5
sI7343
I0
sI7344
F0.5915884193549769
sI7346
F0.5950000000000001
sI7349
F0.5131855000000001
sI7350
F0.6355000000000001
sI7351
F0.5
sI7355
F0.5
sI7359
F0.5
sI7361
F0.5
sI7362
F0.6355000000000001
sI7363
F0.7598196220561959
sI7365
F0.5
sI7367
F0.55
sI7369
F0.7847663949999999
sI7379
F0.5
sI7391
F0.5
sI7395
F0.45
sI7397
I0
sI7427
F0.5
sI7431
F0.505
sI7433
F0.55
sI7442
F1.0
sI7443
F0.5
sI7445
F0.5
sI7448
F0.5
sI7449
F0.5
sI7450
F1.0
sI7452
F0.505
sI7454
F0.55
sI7457
F0.5
sI7458
F0.55
sI7459
F0.07504731764849956
sI7463
F0.5
sI7467
F0.5
sI7469
F0.5
sI7470
F0.5
sI7471
F0.9999954060812374
sI7473
F0.5
sI7475
F0.5
sI7477
F0.999999543982772
sI7481
F0.4469710947754104
sI7485
F0.5
sI7487
F0.55
sI7496
F0.5
sI7497
F0.521695
sI7499
F0.6355000000000001
sI7502
F0.5
sI7503
F0.5950000000000001
sI7504
F1.0
sI7506
F0.6355000000000001
sI7507
F0.06467370896129504
sI7509
F0.45
sI7511
F0.55
sI7513
F0.5
sI7515
F0.5
sI7517
F0.5
sI7520
F0.5
sI7521
F0.5
sI7522
F0.5
sI7525
F0.9999999873168662
sI7527
F0.5
sI7528
F0.05367001416900681
sI7541
F0.5
sI7553
F0.45
sI7557
F0.5
sI7559
I0
sI7589
F0.5
sI7593
F0.505
sI7595
F0.5
sI7604
F1.0
sI7605
F0.5
sI7607
F0.5
sI7610
F0.48195
sI7611
F0.5
sI7612
F0.5428239755500001
sI7676
F0.5
sI7688
F0.45
sI7692
F0.5
sI7694
I0
sI7697
F0.5
sI7701
F0.5
sI7703
F0.5
sI7712
F1.0
sI7713
F0.5
sI7715
F0.5
sI7718
F0.505
sI7719
F0.5
sI7720
F0.32805000000000006
sI7730
F0.5
sI7742
F0.5
sI7746
F0.5
sI7748
I0
sI7749
F0.5
sI7751
F0.5
sI7754
F0.5
sI7755
F0.55
sI7756
F0.156905298045
sI7760
F1.0
sI7764
F1.0
sI7767
F0.5
sI7768
F0.48116621260270753
sI7770
F0.4905
sI7772
F0.5950000000000001
sI7774
F0.999999999990189
sI7776
F0.505
sI7778
F0.5
sI7781
F0.5
sI7782
F0.5
sI7783
F0.5
sI7787
F0.6587158134992654
sI7791
F0.5
sI7793
F0.704755
sI7794
F0.5
sI7795
F0.5
sI7797
F0.505
sI7799
F0.5
sI7801
F0.5950000000000001
sI7805
F0.5
sI7809
F0.5
sI7811
F0.5
sI7820
F0.5
sI7821
F0.5
sI7823
F0.5
sI7826
F0.5005
sI7827
F0.5
sI7828
F1.0
sI7830
F0.6355000000000001
sI7831
F0.45
sI7833
F0.5
sI7835
F0.55
sI7837
F0.5
sI7839
F0.5
sI7841
F0.704755
sI7844
F0.5
sI7845
F0.5
sI7846
F0.5
sI7849
F0.8062897554999999
sI7851
F0.55
sI7852
F0.36450000000000005
sI7859
F0.505
sI7863
F0.5
sI7865
F0.55
sI7874
F1.0
sI7875
F0.5
sI7877
F0.5
sI7880
F0.5
sI7881
F0.5
sI7882
F1.0
sI7892
F0.5
sI7904
F0.5
sI7908
F0.5
sI7910
I0
sI7911
F0.5
sI7913
F0.5
sI7916
F0.5
sI7917
F0.5
sI7918
F1.0
sI7922
F1.0
sI7926
F1.0
sI7929
F0.5
sI7930
F1.0
sI7932
F0.5
sI7934
F0.5
sI7938
F0.55
sI7939
F0.0675425858836496
sI7941
F0.5
sI7943
F0.5
sI7945
F0.5
sI7947
F0.5
sI7949
F0.7342795
sI7952
F0.5
sI7953
F0.5
sI7954
F0.2657205
sI7957
F0.9999999999999758
sI7959
F0.5
sI7960
F0.16056447424377876
sI7965
F0.5
sI7967
F0.55
sI7970
F0.5
sI7971
F0.5
sI7972
F1.0
sI7976
F0.5005
sI7980
F0.5
sI7982
F0.55
sI7983
F0.55
sI7984
F1.0
sI7986
F0.5
sI7988
F0.55
sI7993
I0
sI7995
I0
sI8001
I0
sI8006
I0
sI8008
I0
sI8014
I0
sI8019
F0.5245861247321886
sI8020
F0.6784167595740095
sI8022
F0.50014
sI8024
F0.5
sI8026
F0.7608515499999999
sI8028
F0.5171950000000001
sI8030
F0.5950000000000001
sI8033
F0.5
sI8034
F0.5
sI8035
F0.7559414600878257
sI8038
F0.9809239787761527
sI8040
F0.5
sI8041
F0.004363981784043855
sI8046
F0.5
sI8048
F0.5
sI8051
F0.5
sI8052
F0.5
sI8053
F0.39803476561658496
sI8057
F0.5
sI8061
F0.5
sI8063
F0.5
sI8064
F0.5
sI8065
F0.5
sI8067
F0.5
sI8069
F0.5
sI8071
F0.55
sI8074
F0.704755
sI8076
F0.5
sI8077
F0.5135500000000001
sI8082
F0.55
sI8083
F0.505
sI8085
F0.5
sI8087
I0
sI8089
F0.8062897554999999
sI8095
F0.55
sI8100
F0.5
sI8102
F0.5
sI8105
F0.5
sI8106
F0.5
sI8107
F1.0
sI8111
F0.45
sI8115
F0.5
sI8117
F0.5
sI8118
F0.5
sI8119
F1.0
sI8121
F0.5
sI8123
F0.5
sI8129
F0.5
sI8133
F0.5
sI8135
F0.5
sI8144
F0.5
sI8145
F0.5
sI8147
F0.5
sI8150
F0.5
sI8151
F0.5
sI8152
F1.0
sI8154
F0.5
sI8155
F1.0
sI8157
F0.5
sI8159
I0
sI8163
F0.5
sI8165
I0
sI8169
F0.5
sI8170
F1.0
sI8175
F0.5
sI8176
F1.0
sI8182
F0.9999973060178851
sI8184
F0.5005
sI8185
F0.20492223408345278
sI8190
F0.55
sI8191
F0.9999995967730275
sI8193
F0.505
sI8195
F0.5
sI8197
F0.9999999996080512
sI8203
I0
sI8208
F0.5
sI8209
F0.07113857745124869
sI8211
F0.5
sI8213
F0.5
sI8215
F0.2511920107005456
sI8217
F0.5
sI8219
F0.5
sI8222
F0.495
sI8223
F0.5
sI8224
F0.015451577191316302
sI8227
I0
sI8229
I0
sI8239
F0.5950000000000001
sI8245
F0.9999999991805323
sI8247
F0.55
sI8248
F1.0
sI8262
F0.5294170220128596
sI8264
F0.55
sI8267
F0.5
sI8268
F0.55
sI8269
F0.5095000000000001
sI8273
F1.0
sI8277
F1.0
sI8280
F0.5467964213471679
sI8281
F0.45
sI8283
F0.45
sI8285
F0.495
sI8287
F0.55
sI8291
F0.5
sI8295
F0.505
sI8297
F0.55
sI8306
F1.0
sI8307
F0.405
sI8309
F0.5
sI8312
F0.5
sI8313
F0.5
sI8314
F0.5
sI8316
F0.5950000000000001
sI8317
F0.5257450000000001
sI8319
F0.45
sI8321
I0
sI8323
F0.5950000000000001
sI8325
F1.0
sI8332
F1.0
sI8335
F0.5950000000000001
sI8337
F0.5
sI8338
F0.45
sI8345
F0.5
sI8349
F0.5
sI8351
F0.5
sI8360
F1.0
sI8361
F0.6015908921212176
sI8363
F0.6355000000000001
sI8366
F0.45
sI8367
F0.67195
sI8368
F1.0
sI8378
F1.0
sI8390
F1.0
sI8394
F1.0
sI8397
F0.5
sI8399
I0
sI8403
F0.5
sI8404
F1.0
sI8412
F1.0
sI8415
F0.67195
sI8416
F1.0
sI8418
F0.5
sI8420
I0
sI8424
F0.5950000000000001
sI8425
F0.19435779250384508
sI8427
F0.5
sI8429
F0.55
sI8431
F0.55
sI8433
F1.0
sI8438
F1.0
sI8440
F1.0
sI8443
I0
sI8445
I0
sI8451
F0.36450000000000005
sI8453
F0.55
sI8456
F0.5
sI8457
F0.5
sI8458
F0.049238545109180555
sI8462
F1.0
sI8466
F1.0
sI8469
I0
sI8474
I0
sI8476
I0
sI8479
F0.9999999999999996
sI8481
F0.5
sI8482
F0.08338590849833284
sI8488
F1.0
sI8490
F1.0
sI8500
I0
sI8506
F0.7608515499999999
sI8508
F0.5
sI8509
F0.5180500000000001
sI8514
F0.5
sI8515
F0.5095000000000001
sI8517
F0.5
sI8519
F0.5
sI8521
F0.82566077995
sI8527
F0.5950000000000001
sI8532
F0.5
sI8533
F0.5016464801676016
sI8535
F0.5
sI8537
F0.5
sI8539
F0.5
sI8541
F0.5
sI8543
F0.5
sI8546
F0.5
sI8547
F0.5
sI8548
F0.7580779197887875
sI8551
F0.5
sI8553
F0.5
sI8554
F0.5
sI8563
F0.55
sI8569
F0.55
sI8571
F0.5
sI8572
F1.0
sI8586
F0.5
sI8587
F1.0
sI8589
F0.5
sI8591
F0.5
sI8595
F0.5
sI8597
F0.46971147105
sI8600
F0.405
sI8601
F0.5
sI8602
F1.0
sI8607
F0.5
sI8608
F1.0
sI8613
F0.5
sI8615
F0.5
sI8618
F0.5
sI8619
F0.5
sI8620
F1.0
sI8624
F0.4435236
sI8628
F0.505
sI8630
F0.36450000000000005
sI8631
F0.5
sI8632
F1.0
sI8634
F0.5
sI8636
F0.5
sI8643
F0.5
sI8644
F1.0
sI8649
F0.5
sI8650
F1.0
sI8652
F0.5
sI8654
I0
sI8671
F0.55
sI8677
F0.999718039563302
sI8679
F0.5
sI8680
F1.0
sI8695
F0.48842317255920503
sI8697
F0.5
sI8698
F0.11727158151854206
sI8703
F0.5
sI8704
F0.4225846138916301
sI8706
F0.5
sI8708
F0.45
sI8710
F1.6146230089992755e-06
sI8716
I0
sI8750
F0.49940763405060834
sI8754
F0.5256055319848687
sI8756
F0.55
sI8765
F0.5
sI8766
F0.5705387317633568
sI8768
F0.67195
sI8771
F0.5
sI8772
F0.6355000000000001
sI8773
F0.5
sI8783
F0.45
sI8795
F0.5
sI8799
F0.5
sI8801
I0
sI8802
F0.50005
sI8804
F0.55
sI8807
F0.5
sI8808
F0.5
sI8809
F0.5
sI8813
F0.5
sI8817
F0.5
sI8819
F0.5
sI8820
F0.6355000000000001
sI8821
F0.5095000000000001
sI8823
F0.5
sI8825
F0.5
sI8827
F0.55
sI8837
F0.45
sI8849
F0.5
sI8853
F0.5
sI8855
I0
sI8885
F0.45
sI8889
F0.5
sI8891
F0.5
sI8900
F0.5
sI8901
F0.5
sI8903
F0.5
sI8906
F1.0
sI8907
F0.5
sI8908
F1.0
sI8910
F0.49727702558950804
sI8912
F0.5950000000000001
sI8915
F0.4650407181874531
sI8916
F0.5950000000000001
sI8917
F0.9848770952849099
sI8921
F0.5
sI8925
F0.5
sI8927
F0.5
sI8928
F0.67195
sI8929
F0.1382060738005836
sI8931
F0.45
sI8933
F0.5
sI8935
F0.999995832375791
sI8939
F0.551742497749752
sI8943
F0.5248298973372094
sI8945
F0.5950000000000001
sI8954
F0.5
sI8955
F0.45
sI8957
F0.5950000000000001
sI8960
F0.5
sI8961
F0.5950000000000001
sI8962
F0.5
sI8964
F0.55
sI8965
F0.06689953659270298
sI8967
F0.5
sI8969
F0.55
sI8971
F0.9999999976497896
sI8973
F0.5
sI8975
F0.5
sI8978
F0.5
sI8979
F0.5
sI8980
F0.054709494565756175
sI8983
F0.55
sI8985
F0.5
sI8986
F0.12709329141645
sI8999
F0.5
sI9011
F0.45
sI9015
F0.45
sI9017
I0
sI9047
F0.5
sI9051
F0.5
sI9053
F0.5
sI9062
F1.0
sI9063
F0.5
sI9065
F0.5
sI9068
F0.45
sI9069
F0.5
sI9070
F0.505
sI9134
F0.5
sI9146
F0.5
sI9150
F0.5
sI9152
I0
sI9155
F0.5
sI9159
F0.5
sI9161
F0.5
sI9170
F1.0
sI9171
F0.5
sI9173
F0.5
sI9176
F0.5
sI9177
F0.5
sI9178
F0.36450000000000005
sI9188
F0.5
sI9200
F0.5
sI9204
F0.45
sI9206
I0
sI9207
F0.5
sI9209
F0.5
sI9212
F0.5
sI9213
F0.5
sI9214
F0.8381351911343318
sI9218
F1.0
sI9222
F1.0
sI9225
F0.5
sI9226
F0.07956542754988646
sI9228
F0.5
sI9230
F0.5
sI9232
F0.9249526823515004
sI9234
F0.5
sI9236
F0.55
sI9239
F0.5
sI9240
F0.55
sI9241
F0.5
sI9245
F0.49975267891950015
sI9249
F0.5
sI9251
F0.55
sI9252
F0.5950000000000001
sI9253
F0.5480021395000001
sI9255
F0.5
sI9257
F0.5
sI9259
F0.6355000000000001
sI9263
F0.5
sI9267
F0.5
sI9269
F0.5
sI9278
F0.5
sI9279
F0.5
sI9281
F0.5
sI9284
F0.5
sI9285
F0.5
sI9286
F0.5
sI9288
F0.5
sI9289
F0.405
sI9291
F0.5
sI9293
F0.5
sI9295
F0.5
sI9297
F0.5
sI9299
F0.55
sI9302
F0.5
sI9303
F0.5
sI9304
F0.5
sI9307
F0.55
sI9309
F0.5
sI9310
F0.5
sI9317
F0.5
sI9321
F0.5095000000000001
sI9323
F0.55
sI9332
F0.5
sI9333
F0.5
sI9335
F0.5
sI9338
F1.0
sI9339
F0.5
sI9340
F1.0
sI9350
F0.45
sI9362
F0.45
sI9366
F0.5
sI9368
I0
sI9369
F0.5
sI9371
F0.5
sI9374
F1.0
sI9375
F0.5
sI9376
F1.0
sI9380
F0.5
sI9384
F0.5
sI9386
F0.5
sI9387
F0.5
sI9388
F1.0
sI9390
F1.0
sI9396
F0.5950000000000001
sI9397
F0.21211446088584185
sI9399
F0.45
sI9401
F0.55
sI9403
F0.9999999998770023
sI9405
F0.5
sI9407
F0.55
sI9410
F0.5
sI9411
F0.5
sI9412
F0.06078832729528464
sI9415
F0.6355000000000001
sI9417
F0.5
sI9418
F0.114383962274805
sI9423
F0.5
sI9425
F0.6355000000000001
sI9428
F0.500545
sI9429
F0.5950000000000001
sI9430
F0.48184189584857556
sI9434
F0.5
sI9438
F0.462709329141645
sI9440
F0.5
sI9441
F0.5
sI9442
F0.2935764
sI9444
F0.5
sI9446
F0.5950000000000001
sI9448
F0.7608515499999999
sI9451
I0
sI9453
I0
sI9459
I0
sI9464
I0
sI9466
I0
sI9472
I0
sI9485
F1.0
sI9497
F1.0
sI9501
F1.0
sI9533
F1.0
sI9537
F1.0
sI9548
F1.0
sI9549
F1.0
sI9554
F1.0
sI9556
F1.0
sI9620
F1.0
sI9632
F1.0
sI9636
F1.0
sI9641
F1.0
sI9645
F1.0
sI9656
F1.0
sI9657
F1.0
sI9662
F1.0
sI9664
F1.0
sI9674
F1.0
sI9686
F1.0
sI9690
F1.0
sI9693
F1.0
sI9698
F1.0
sI9700
F1.0
sI9704
F1.0
sI9708
F1.0
sI9712
F1.0
sI9714
F1.0
sI9782
F1.0
sI9794
F1.0
sI9798
F1.0
sI9890
F1.0
sI9902
F1.0
sI9906
F1.0
sI9938
F1.0
sI9942
F1.0
sI9953
F1.0
sI9954
F1.0
sI9959
F1.0
sI9961
F1.0
sI9965
F1.0
sI9969
F1.0
sI9980
F1.0
sI9981
F1.0
sI9986
F1.0
sI9988
F1.0
sI9998
F1.0
sI10010
F1.0
sI10014
F1.0
sI10017
F1.0
sI10022
F1.0
sI10024
F1.0
sI10028
F1.0
sI10032
F1.0
sI10036
F1.0
sI10038
F1.0
sI10052
F1.0
sI10064
F1.0
sI10068
F1.0
sI10100
F1.0
sI10104
F1.0
sI10115
F1.0
sI10116
F1.0
sI10121
F1.0
sI10123
F1.0
sI10125
F1.0
sI10130
F1.0
sI10132
F1.0
sI10136
F1.0
sI10140
F1.0
sI10144
F1.0
sI10146
F1.0
sI10154
F1.0
sI10158
F1.0
sI10169
F1.0
sI10170
F1.0
sI10175
F1.0
sI10177
F1.0
sI10206
F0.5
sI10208
F0.48643414028916876
sI10211
F0.45
sI10212
F0.5228987491090692
sI10213
F0.505
sI10217
F0.45
sI10221
F0.5551060991165226
sI10223
F0.6355000000000001
sI10224
F0.5878969331040967
sI10225
F0.45
sI10227
F0.5
sI10229
F0.5
sI10231
F0.55
sI10235
F0.47330627526944546
sI10239
F0.5
sI10241
F0.495
sI10250
F0.495
sI10251
F0.32805000000000006
sI10253
F0.426063572505
sI10256
F0.33979500000000007
sI10257
F0.5
sI10258
F0.5
sI10260
F0.5005
sI10261
F0.5
sI10263
F0.5
sI10265
I0
sI10267
F0.5
sI10269
F0.5
sI10271
I0
sI10275
F0.6355000000000001
sI10276
F0.5
sI10279
F0.55
sI10281
F0.5
sI10282
F0.5
sI10289
F0.40905
sI10293
F0.5
sI10295
F0.495
sI10304
F0.5
sI10305
F0.6528617275321971
sI10307
F0.67195
sI10310
F1.0
sI10311
F0.7342795
sI10312
F1.0
sI10322
F0.45
sI10334
F0.32805000000000006
sI10338
F0.5
sI10340
I0
sI10341
F0.5
sI10343
I0
sI10347
F0.5
sI10348
F1.0
sI10356
F0.5
sI10358
I0
sI10359
F0.7342795
sI10360
F1.0
sI10362
F1.0
sI10368
F0.4760579396098531
sI10369
F0.11514231764849958
sI10371
F0.405
sI10373
F0.41285430752355
sI10375
F0.5669465772288215
sI10377
F0.44890342924299764
sI10379
F0.5950000000000001
sI10382
F0.3575745
sI10383
F0.67195
sI10384
F0.5915875717432452
sI10387
I0
sI10389
I0
sI10395
F0.405
sI10397
F0.535168037212301
sI10400
F0.32476950000000004
sI10401
F0.5038858658133272
sI10402
F0.06078832729528464
sI10406
F0.44563695763776867
sI10410
F0.47874102953514086
sI10412
F0.9166140915016672
sI10413
I0
sI10418
I0
sI10420
I0
sI10423
F0.495
sI10425
F0.5
sI10426
F0.45
sI10431
F0.5950000000000001
sI10432
F0.18904444536122667
sI10434
F0.5
sI10436
I0
sI10438
F0.9999999999998943
sI10444
I0
sI10451
F0.45
sI10455
F0.4919453714328795
sI10457
F0.5950000000000001
sI10466
F1.0
sI10467
F0.45
sI10469
F0.5
sI10472
F0.5
sI10473
F0.42504093495
sI10474
F0.32805000000000006
sI10484
F0.45
sI10496
F0.32805000000000006
sI10500
F0.32805000000000006
sI10502
I0
sI10503
F0.4545
sI10505
I0
sI10509
F0.5950000000000001
sI10510
F0.5
sI10518
F1.0
sI10521
F0.5
sI10522
F0.5
sI10524
F0.5
sI10526
I0
sI10528
F0.55
sI10538
F0.5
sI10550
F0.5
sI10554
F0.32805000000000006
sI10556
I0
sI10590
F0.5
sI10592
I0
sI10602
F0.5
sI10604
I0
sI10608
F0.5
sI10609
F1.0
sI10611
F0.368145
sI10613
F0.5
sI10616
F0.32805000000000006
sI10617
F0.5950000000000001
sI10618
F0.0271042385253059
sI10622
F1.0
sI10626
F1.0
sI10629
I0
sI10634
I0
sI10636
I0
sI10640
F0.405
sI10644
F0.5
sI10646
F0.5
sI10655
F1.0
sI10658
I0
sI10662
I0
sI10665
F0.55
sI10666
F0.054709494565756175
sI10668
F0.5
sI10670
I0
sI10672
F0.8970544339526756
sI10674
F1.0
sI10681
F1.0
sI10684
I0
sI10686
I0
sI10692
F0.5
sI10693
F0.5
sI10695
F0.5
sI10697
F0.5
sI10699
F0.5
sI10701
F0.5
sI10703
F0.47661105105
sI10706
F0.4455
sI10707
F0.5756026699482356
sI10708
F0.7243346509177199
sI10711
F0.5950000000000001
sI10713
F0.5
sI10714
F0.45
sI10719
F0.5
sI10721
F0.4995
sI10724
F0.5
sI10725
F0.5
sI10726
F0.495
sI10730
F0.42810525000000005
sI10734
F0.47391484500000003
sI10736
F0.23914845
sI10737
F0.5
sI10738
F0.5
sI10740
F0.5
sI10742
F0.55
sI10744
F0.5
sI10747
F0.5
sI10749
F0.5
sI10750
F0.5
sI10755
F0.5
sI10756
F0.5
sI10758
F0.5
sI10760
I0
sI10762
F0.885616037725195
sI10768
F0.5
sI10773
F0.5
sI10775
F0.5
sI10778
F1.0
sI10779
F0.55
sI10780
F1.0
sI10784
F0.405
sI10788
F0.5
sI10790
F0.5
sI10791
F0.704755
sI10792
F1.0
sI10794
F1.0
sI10802
F0.495
sI10806
F0.5
sI10808
F0.45
sI10817
F0.0
sI10818
F0.5
sI10820
F0.5
sI10823
F1.0
sI10824
F0.5
sI10825
F1.0
sI10827
F0.5
sI10828
F1.0
sI10830
F1.0
sI10836
F0.5
sI10838
I0
sI10842
F0.5
sI10843
F1.0
sI10849
F1.0
sI10855
F0.495
sI10857
F0.5
sI10858
F0.45
sI10863
F0.366283799164202
sI10864
F0.29524500000000004
sI10866
F0.29229255000000004
sI10868
F0.32805000000000006
sI10870
F3.7431308205717127e-13
sI10876
I0
sI10881
F0.5
sI10882
F0.13738784802118248
sI10884
F0.5
sI10886
F0.36450000000000005
sI10888
F0.1937102445
sI10890
F0.31346455424003794
sI10892
F0.09265100944259205
sI10895
F0.0
sI10896
F0.12709329141645
sI10897
F0.0
sI10900
I0
sI10902
I0
sI10912
I0
sI10918
I0
sI10920
I0
sI10935
F0.5322488613040106
sI10936
F0.6236085573748252
sI10938
F0.5
sI10940
F0.5
sI10942
F0.7608515499999999
sI10944
F0.50005
sI10946
F0.6355000000000001
sI10949
F0.5
sI10950
F0.55
sI10951
F0.5
sI10954
F0.9788044208623918
sI10956
F0.5
sI10957
F0.5
sI10962
F0.5
sI10964
F0.5
sI10967
F0.5
sI10968
F0.5
sI10969
F0.46
sI10973
F0.5
sI10977
F0.5
sI10979
F0.5
sI10980
F0.5
sI10981
F0.5
sI10983
F0.5
sI10985
F0.5
sI10987
F0.55
sI10990
F0.7342795
sI10992
F0.5
sI10993
F0.505
sI10998
F0.5
sI10999
F0.5
sI11001
F0.5
sI11003
F0.5
sI11005
F0.7608515499999999
sI11011
F0.55
sI11016
F0.5
sI11018
F0.5
sI11021
F0.5
sI11022
F0.5
sI11023
F1.0
sI11027
F0.5
sI11031
F0.5
sI11033
F0.5
sI11034
F0.5
sI11035
F1.0
sI11037
F0.5
sI11039
F0.5
sI11045
F0.5
sI11049
F0.5
sI11051
F0.5
sI11060
F0.5
sI11061
F0.5
sI11063
F0.5
sI11066
F0.5
sI11067
F0.5
sI11068
F1.0
sI11070
F0.5
sI11071
F1.0
sI11073
F0.5
sI11075
F0.5
sI11079
F0.5
sI11081
F0.5
sI11084
F0.5
sI11085
F0.5
sI11086
F1.0
sI11091
F0.5
sI11092
F1.0
sI11098
F0.9801208378718638
sI11100
F0.5
sI11101
F0.9679155493952778
sI11106
F0.5
sI11107
F0.08446402384528465
sI11109
F0.5
sI11111
F0.5
sI11113
I0
sI11119
F0.4586541686700932
sI11124
F0.495
sI11125
F0.22497871274066478
sI11127
F0.5
sI11129
F0.5
sI11131
I0
sI11133
F0.45
sI11135
F0.5
sI11138
F0.5
sI11139
I0
sI11143
F0.5950000000000001
sI11145
F0.5
sI11146
F0.29524500000000004
sI11155
F0.9999999999999885
sI11161
F0.5
sI11163
F0.5
sI11164
F1.0
sI11178
F0.505
sI11180
F0.55
sI11183
F0.5
sI11184
F0.5
sI11185
F0.45
sI11189
F1.0
sI11193
F1.0
sI11196
F0.5
sI11197
F0.5080500000000001
sI11199
F0.5
sI11201
F0.5
sI11203
F0.5
sI11207
F0.5
sI11211
F0.5
sI11213
F0.5
sI11222
F1.0
sI11223
F0.5
sI11225
F0.5
sI11228
F0.5
sI11229
F0.5
sI11230
F0.5
sI11232
F0.5
sI11233
F0.5326705000000002
sI11235
F0.5
sI11237
F0.5
sI11239
F0.5950000000000001
sI11241
F1.0
sI11246
F1.0
sI11248
F1.0
sI11251
F0.6355000000000001
sI11253
F0.5
sI11254
F0.5
sI11261
F0.5
sI11265
F0.5
sI11267
F0.5
sI11276
F1.0
sI11277
F0.505
sI11279
F0.5
sI11282
F0.5
sI11283
F0.5
sI11284
F1.0
sI11294
F1.0
sI11306
F1.0
sI11310
F1.0
sI11313
F0.5
sI11315
F0.5
sI11318
F0.5
sI11319
F0.5
sI11320
F1.0
sI11324
F1.0
sI11328
F1.0
sI11331
F0.55
sI11332
F1.0
sI11334
F0.5
sI11336
F0.5
sI11340
F0.55
sI11341
F0.12709329141645
sI11343
F0.5
sI11345
F0.5
sI11347
I0
sI11349
F1.0
sI11354
F1.0
sI11359
F0.495
sI11361
F0.5
sI11362
F0.29524500000000004
sI11367
F0.5
sI11369
F0.55
sI11372
F0.495
sI11373
I0
sI11378
F1.0
sI11385
F0.5
sI11386
F0.5
sI11388
F0.5
sI11390
F0.45
sI11392
I0
sI11395
F0.9999999996472461
sI11397
F0.5
sI11398
F0.48749630499999996
sI11404
F1.0
sI11406
F1.0
sI11416
F0.32805000000000006
sI11422
F0.7342795
sI11424
F0.5
sI11425
F0.5
sI11430
F0.5005
sI11431
F0.5
sI11433
F0.5
sI11435
F0.4995
sI11437
F0.55
sI11443
F0.5
sI11448
F0.5
sI11449
F0.5
sI11451
F0.5
sI11453
F0.5
sI11455
F0.55
sI11457
F0.5
sI11459
F0.5
sI11462
F0.495
sI11463
F0.5
sI11464
F0.5
sI11467
F0.5
sI11469
F0.5
sI11470
F0.5
sI11479
F0.5
sI11485
F0.5
sI11487
F0.5
sI11488
F1.0
sI11502
F0.5
sI11503
F1.0
sI11505
F0.5
sI11507
F0.5
sI11511
F0.505
sI11513
F0.55
sI11516
F0.5
sI11517
F0.5
sI11518
F1.0
sI11523
F0.5
sI11524
F1.0
sI11529
F0.5135500000000001
sI11531
F0.5
sI11534
F0.495
sI11535
F0.55
sI11536
F1.0
sI11540
F0.5
sI11544
F0.5
sI11546
F0.5
sI11547
F0.55
sI11548
F1.0
sI11550
F0.5
sI11552
F0.45
sI11559
F0.5
sI11560
F1.0
sI11565
F0.55
sI11566
F1.0
sI11568
F0.5
sI11570
F0.5
sI11587
F0.9999969618019516
sI11593
F0.55
sI11595
F0.5
sI11596
F1.0
sI11611
F0.9999999999003719
sI11613
F0.5
sI11614
F0.6946522790589942
sI11619
F0.5
sI11620
F0.215233605
sI11622
F0.5
sI11624
F0.5
sI11626
I0
sI11632
F0.8062897554999999
sI11664
F0.5
sI11666
F0.5
sI11669
F0.5
sI11670
F0.5
sI11671
F0.405
sI11675
F0.5
sI11679
F0.5
sI11681
F0.5
sI11682
F0.5
sI11683
F0.5
sI11685
F0.5
sI11687
F0.5
sI11689
F0.5950000000000001
sI11693
F0.5
sI11697
F0.5
sI11699
F0.5
sI11708
F0.5
sI11709
F0.5
sI11711
F0.5
sI11714
F0.5
sI11715
F0.5
sI11716
F1.0
sI11718
F0.6097155534773936
sI11719
F0.4841495839534499
sI11721
F0.5
sI11723
F0.5005
sI11725
F0.55
sI11727
F0.6733132051409485
sI11729
F0.7342795
sI11732
F0.505
sI11733
F0.7342795
sI11734
F0.405
sI11737
F0.8062897554999999
sI11739
F0.5
sI11740
F0.707685429742165
sI11747
F0.5
sI11751
F0.5
sI11753
F0.5
sI11762
F1.0
sI11763
F0.5
sI11765
F0.5
sI11768
F0.495
sI11769
F0.5
sI11770
F1.0
sI11780
F0.5
sI11792
F0.5
sI11796
F0.5
sI11798
I0
sI11799
F0.5
sI11801
F0.5
sI11804
F0.5
sI11805
F0.5
sI11806
F1.0
sI11810
F1.0
sI11814
F1.0
sI11817
F0.5
sI11818
F1.0
sI11820
F0.5
sI11822
F0.45
sI11826
F0.5
sI11827
F0.09265100944259205
sI11829
F0.49995
sI11831
F0.5
sI11833
I0
sI11835
F0.5
sI11837
F0.5
sI11840
F0.5
sI11841
I0
sI11845
F0.9998786252774842
sI11847
F0.5
sI11848
F0.35744085063195047
sI11853
F0.5
sI11855
F0.3902092186927369
sI11858
F0.3255579410016672
sI11859
I0
sI11864
F0.29524500000000004
sI11870
I0
sI11871
F0.55
sI11872
F1.0
sI11874
F0.5
sI11876
F0.215233605
sI11881
F0.3974272573095
sI11883
F0.4995
sI11884
F0.09324963520172015
sI11889
F0.7342795
sI11890
F0.2657205
sI11892
F0.5
sI11894
F0.5
sI11896
I0
sI11902
F7.167055989833899e-05
sI11909
F0.5
sI11913
F0.5
sI11915
F0.5
sI11924
F1.0
sI11925
F0.5
sI11927
F0.5
sI11930
F0.5
sI11931
F0.5
sI11932
F0.45
sI11942
F0.5
sI11954
F0.5
sI11958
F0.5
sI11960
I0
sI11961
F0.5001805
sI11963
F0.5
sI11966
F0.5
sI11967
F0.5
sI11968
F0.5
sI11972
F1.0
sI11976
F1.0
sI11979
F0.5018050000000001
sI11980
F0.53344
sI11982
F0.5
sI11984
F0.36450000000000005
sI11986
F0.67195
sI11996
F0.5
sI12008
F0.5
sI12012
F0.5
sI12014
I0
sI12044
F0.5
sI12048
F0.5
sI12050
F0.5
sI12059
F1.0
sI12060
F0.5
sI12062
F0.5
sI12065
F0.0
sI12066
F0.5
sI12067
F1.0
sI12069
F0.5
sI12071
F0.5
sI12074
F0.5
sI12075
I0
sI12080
F1.0
sI12087
F0.5
sI12088
F0.45
sI12090
F0.5
sI12092
F0.5
sI12094
I0
sI12098
F0.32805000000000006
sI12104
I0
sI12114
F0.5
sI12116
F0.5
sI12119
F0.0
sI12120
I0
sI12123
F0.5
sI12124
F0.1937102445
sI12126
F0.495
sI12128
F0.5
sI12130
I0
sI12132
F1.0
sI12137
F1.0
sI12142
F1.6615165285509945e-11
sI12144
F0.405
sI12145
F0.0
sI12150
F0.5
sI12151
F0.5135500000000001
sI12153
F0.5
sI12155
F0.5
sI12157
F0.55
sI12159
F0.5
sI12161
F0.7342795
sI12164
F0.5
sI12165
F0.5
sI12166
F0.5
sI12169
F0.55
sI12171
F0.5
sI12172
F0.5
sI12177
F0.5
sI12179
F0.5
sI12182
F0.5
sI12183
F0.5
sI12184
F1.0
sI12188
F0.5
sI12192
F0.5
sI12194
F0.5
sI12195
F0.5
sI12196
F1.0
sI12198
F0.5
sI12200
F0.45
sI12205
F0.5950000000000001
sI12207
F0.5
sI12208
F0.5
sI12213
F0.7342795
sI12214
F0.32805000000000006
sI12216
F0.5
sI12218
F0.55
sI12220
F0.5
sI12226
F0.87290670858355
sI12231
F0.5
sI12233
F0.5
sI12236
F0.5
sI12237
F0.5
sI12238
F1.0
sI12242
F1.0
sI12246
F1.0
sI12249
F0.5
sI12250
F1.0
sI12252
F0.5
sI12254
F0.5
sI12260
F0.5
sI12264
F0.5
sI12266
F0.5
sI12275
F1.0
sI12276
F0.5
sI12278
F0.5
sI12281
F0.0
sI12282
F0.5
sI12283
F1.0
sI12285
F0.5
sI12286
F1.0
sI12288
F0.5
sI12290
F0.5
sI12294
F1.0
sI12299
F1.0
sI12301
F1.0
sI12306
F0.5
sI12307
F1.0
sI12313
F0.55
sI12315
F0.5
sI12316
F0.29524500000000004
sI12321
F0.5
sI12322
F0.45
sI12324
F0.5
sI12326
F0.5
sI12328
I0
sI12334
F0.9999419468464822
sI12339
F0.5
sI12340
F1.0
sI12342
F0.5
sI12344
F0.215233605
sI12348
F0.5
sI12350
F0.45
sI12353
F0.0
sI12354
I0
sI12360
F0.5
sI12361
F1.0
sI12370
I0
sI12376
I0
sI12378
I0
sI12394
F0.7342795
sI12396
F0.5014
sI12397
F0.514
sI12402
F0.55
sI12403
F0.5
sI12405
F0.5
sI12407
F0.5
sI12409
F0.82566077995
sI12415
F0.5950000000000001
sI12420
F0.5
sI12421
F0.480776958
sI12423
F0.5
sI12425
F0.5
sI12427
F0.5
sI12429
F0.5
sI12431
F0.5
sI12434
F0.5
sI12435
F0.5
sI12436
F0.5
sI12439
F0.5
sI12441
F0.5
sI12442
F0.36450000000000005
sI12451
F0.55
sI12457
F0.55
sI12459
F0.5
sI12460
F1.0
sI12474
F0.5
sI12475
F1.0
sI12477
F0.5
sI12479
F0.5
sI12483
F0.505
sI12485
F0.5
sI12488
F0.5
sI12489
F0.55
sI12490
F1.0
sI12495
F0.5
sI12496
F1.0
sI12501
F0.5
sI12503
F0.5
sI12506
F0.5
sI12507
F0.5
sI12508
F1.0
sI12512
F0.5
sI12516
F0.5
sI12518
F0.5
sI12519
F0.5
sI12520
F1.0
sI12522
F0.5
sI12524
F0.5
sI12531
F0.5
sI12532
F1.0
sI12537
F0.5
sI12538
F1.0
sI12540
F0.5
sI12542
I0
sI12559
F0.999999999934634
sI12565
F0.9997716120462745
sI12567
F0.5
sI12568
F1.0
sI12583
F0.42574329
sI12585
F0.5
sI12586
F0.215233605
sI12591
F0.5
sI12592
F0.32805000000000006
sI12594
F0.5
sI12596
F0.5
sI12598
I0
sI12604
I0
sI12636
F0.55
sI12637
F0.5257450000000001
sI12639
F0.5
sI12641
F0.5
sI12643
F0.5950000000000001
sI12645
F1.0
sI12650
F1.0
sI12652
F1.0
sI12655
F0.5950000000000001
sI12657
F0.5
sI12658
F0.405
sI12663
F0.5
sI12665
F0.5
sI12668
F0.5
sI12669
F0.5
sI12670
F0.5
sI12674
F1.0
sI12678
F1.0
sI12681
F0.5
sI12682
F0.5
sI12684
F0.5
sI12686
F0.5
sI12688
F0.5
sI12691
F0.5950000000000001
sI12693
F0.5
sI12694
F0.5
sI12700
F1.0
sI12702
F1.0
sI12712
F0.5
sI12717
F0.5
sI12719
F0.5
sI12722
F0.5
sI12723
F0.5
sI12724
F1.0
sI12728
F1.0
sI12732
F1.0
sI12735
F0.67195
sI12736
F1.0
sI12738
F0.5
sI12740
F0.5
sI12746
F1.0
sI12750
F1.0
sI12761
F1.0
sI12762
F1.0
sI12767
F1.0
sI12769
F1.0
sI12771
F0.5
sI12772
F1.0
sI12774
F0.5
sI12776
I0
sI12780
F1.0
sI12787
F1.0
sI12792
F0.5
sI12793
F1.0
sI12799
F0.55
sI12801
F0.5
sI12802
F0.1937102445
sI12808
F1.0
sI12810
F1.0
sI12820
I0
sI12825
F0.5
sI12826
F0.29524500000000004
sI12828
F0.5
sI12830
F0.5
sI12832
I0
sI12834
F1.0
sI12839
F1.0
sI12844
I0
sI12846
I0
sI12856
F0.6355000000000001
sI12865
F1.0
sI12883
F0.55
sI12889
F0.55
sI12891
F0.5
sI12892
F1.0
sI12907
F0.55
sI12909
F0.5
sI12910
F0.5
sI12915
F0.5
sI12916
F0.505
sI12918
F0.5
sI12920
F0.45
sI12922
F0.907348990557408
sI12928
F0.5
sI12963
F0.5
sI12964
F1.0
sI12969
F0.5
sI12970
F1.0
sI12972
F0.5
sI12974
F0.45
sI12987
F0.55
sI12988
F1.0
sI12990
F0.5
sI12992
F0.5
sI12996
F0.495
sI12998
F0.32805000000000006
sI13001
F0.0
sI13002
F0.55
sI13003
F1.0
sI13008
F0.5
sI13009
F1.0
sI13026
F0.5
sI13027
F1.0
sI13072
F0.8062897554999999
sI13078
F0.9999988229398264
sI13080
F0.5
sI13081
F1.0
sI13123
F0.9986916776580459
sI13125
F0.5192203075688399
sI13126
F0.4645554916386343
sI13131
F0.5447854856033348
sI13132
F0.6130457725888039
sI13134
F0.4995
sI13136
F0.495
sI13138
F0.615635872304529
sI13144
F0.4082228093682478
sI13149
F0.5074830316424839
sI13150
F0.49416934377804683
sI13152
F0.4994065
sI13154
F0.5
sI13156
F0.9997716120462745
sI13158
F0.498241
sI13160
F0.493705
sI13163
F0.45
sI13164
F0.5
sI13165
F0.49795431761690395
sI13168
F0.5950000000000001
sI13170
F0.5005
sI13171
F0.37120720500000004
sI13180
F0.9999529769456506
sI13186
F0.67195
sI13188
F0.5
sI13189
F1.0
sI13203
F0.5291017756572131
sI13204
F0.509232491067564
sI13206
F0.5419079398683488
sI13208
F0.6355000000000001
sI13210
F0.5644143676151709
sI13212
F0.5172480061505614
sI13214
F0.5950000000000001
sI13217
F0.5
sI13218
F0.5950000000000001
sI13219
F0.5081720167
sI13222
F0.5226849038321134
sI13224
F0.5950000000000001
sI13225
F0.013906419472184673
sI13230
F0.49905
sI13232
F0.5950000000000001
sI13235
F0.5
sI13236
F0.55
sI13237
F0.5
sI13241
F0.5095000000000001
sI13245
F0.5
sI13247
F0.5
sI13248
F0.55
sI13249
F0.017168419101462558
sI13251
F0.5
sI13253
F0.5
sI13255
F0.5950000000000001
sI13258
F0.5984331189304295
sI13260
F0.5950000000000001
sI13261
F0.679284135745545
sI13266
F0.5
sI13267
F0.505
sI13269
F0.5
sI13271
F0.5
sI13273
F0.5950000000000001
sI13279
F0.999977509018876
sI13288
F0.6355000000000001
sI13294
F0.9908759981842996
sI13296
F0.55
sI13297
F1.0
sI13312
F0.704755
sI13314
F0.5
sI13315
F0.5
sI13320
F0.5
sI13321
F0.5
sI13323
F0.5
sI13325
I0
sI13327
F0.5950000000000001
sI13333
F0.5950000000000001
sI13365
F0.5058766858616186
sI13366
F0.49902659909471403
sI13368
F0.49868999999999997
sI13370
F0.5
sI13372
F0.5038345
sI13374
F0.49958549999999996
sI13376
F0.6025056586669987
sI13379
F0.5
sI13380
F0.5
sI13381
F0.497385
sI13384
F0.644280362292434
sI13386
F0.5005
sI13387
F0.3601291187691731
sI13392
F0.5058020820329551
sI13394
F0.55
sI13397
F0.5
sI13398
F0.55
sI13399
F0.5326705000000002
sI13403
F0.45
sI13407
F0.5
sI13409
F0.5
sI13410
F0.55
sI13411
F0.5
sI13413
F0.505
sI13415
F0.5
sI13417
F0.5950000000000001
sI13420
F0.5048740931759794
sI13422
F0.5
sI13423
F0.4960317599486145
sI13428
F0.5
sI13429
F0.5
sI13431
F0.5
sI13433
F0.5
sI13435
F0.49969216628529545
sI13441
F0.47249062659225
sI13446
F0.5062328349524471
sI13448
F0.55
sI13451
F0.5
sI13452
F0.6355000000000001
sI13453
F0.5
sI13457
F0.6667783208288316
sI13461
F0.5
sI13463
F0.704755
sI13464
F0.5
sI13465
F0.5019395442642688
sI13467
F0.5
sI13469
F0.5
sI13471
F0.9999999999935629
sI13475
F1.0
sI13479
F1.0
sI13490
F1.0
sI13491
F1.0
sI13496
F1.0
sI13498
F1.0
sI13500
F0.5083626076119102
sI13501
F0.5
sI13503
F0.4995
sI13505
F0.5
sI13507
F0.5074120005662522
sI13509
F0.505
sI13511
F0.7342795
sI13514
F0.5
sI13515
F0.55
sI13516
F0.523936271237995
sI13519
F0.5022655757195683
sI13521
F0.5
sI13522
F0.4688058267526277
sI13528
F0.5022799206623604
sI13530
F0.5
sI13531
F0.5
sI13536
F0.5014395
sI13537
F0.4963396500000001
sI13539
F0.5
sI13541
I0
sI13543
F0.4494285
sI13549
F0.5
sI13554
F0.496109191635
sI13555
F0.4914156195
sI13557
F0.45
sI13559
I0
sI13561
F0.5950000000000001
sI13563
F0.45
sI13565
I0
sI13569
F0.5
sI13570
F0.32805000000000006
sI13573
F0.55
sI13575
F0.5
sI13576
F0.5
sI13585
F0.55
sI13591
F0.55
sI13593
F0.5
sI13594
F1.0
sI13612
F0.55
sI13618
F0.9999203660445574
sI13620
F0.5
sI13621
F1.0
sI13636
F0.6355000000000001
sI13638
F0.5
sI13639
F0.5
sI13644
F0.5
sI13645
F0.514
sI13647
F0.5
sI13649
F0.5
sI13651
F0.5950000000000001
sI13657
I0
sI13690
F0.6124905247625482
sI13692
F0.5950000000000001
sI13693
F0.5
sI13698
F0.5950000000000001
sI13699
F0.682493733516948
sI13701
F0.5
sI13703
F0.5
sI13705
F0.9999999383988344
sI13711
I0
sI13716
F0.4905
sI13717
F0.45
sI13719
F0.5
sI13721
F0.6355000000000001
sI13723
F0.5
sI13725
F0.5
sI13727
F0.55
sI13730
F0.5
sI13731
F0.5
sI13732
F0.5303827845
sI13735
I0
sI13737
I0
sI13747
F0.7847663949999999
sI13753
F0.7608515499999999
sI13755
F0.5
sI13756
F1.0
sI13801
F0.55
sI13807
F0.55
sI13809
F0.5
sI13810
F1.0
sI13851
F0.5502391174517285
sI13852
F0.9983689607977893
sI13854
F0.499159755
sI13856
F0.49195
sI13858
F0.9991014948500427
sI13860
F0.5
sI13862
F0.5
sI13865
F0.45
sI13866
F0.55
sI13867
F0.6924767194939139
sI13870
F0.9991014948500427
sI13872
F0.5
sI13873
F0.2657205
sI13878
F0.5
sI13880
F0.5
sI13883
F0.45
sI13884
F0.5
sI13885
F1.0
sI13889
F0.45
sI13893
F0.5
sI13895
F0.5
sI13896
F0.5
sI13897
F1.0
sI13899
F0.5
sI13901
F0.5
sI13906
F0.9999811081934082
sI13908
F0.5005
sI13909
F0.487072208839365
sI13914
F0.5
sI13915
F0.9999649424201074
sI13917
F0.505
sI13919
F0.55
sI13921
F0.9999999986122243
sI13927
F0.44869914679949996
sI13932
F0.5
sI13934
F0.5
sI13937
F0.505
sI13938
F0.5950000000000001
sI13939
F0.6387082156433103
sI13943
F1.0
sI13947
F1.0
sI13950
F0.5
sI13951
F0.10896440529028462
sI13953
F0.5
sI13955
F0.5
sI13957
F0.7608515499999999
sI13961
F0.5
sI13965
F0.5
sI13967
F0.5
sI13976
F1.0
sI13977
F0.5
sI13979
F0.5
sI13982
F0.45
sI13983
F0.5
sI13984
F1.0
sI13986
F0.5
sI13987
F0.4821074354160745
sI13989
F0.5
sI13991
F0.55
sI13993
F0.7608515499999999
sI13995
F1.0
sI14000
F1.0
sI14002
F1.0
sI14005
F0.4281111396396126
sI14007
F0.5
sI14008
F0.28509152445
sI14014
F0.99742311239634
sI14016
F0.4905
sI14017
F0.505
sI14022
F0.5
sI14023
F0.505
sI14025
F0.45
sI14027
I0
sI14029
F0.7847663949999999
sI14035
F0.67195
sI14040
F0.55
sI14041
F1.0
sI14043
F0.5
sI14045
I0
sI14049
F0.5
sI14051
I0
sI14055
F0.5
sI14056
F1.0
sI14061
F0.5
sI14062
F1.0
sI14071
F0.55
sI14077
F0.9999999976497896
sI14079
F0.5
sI14080
F1.0
sI14094
F0.4995
sI14096
F0.496
sI14099
F0.45
sI14100
F0.5
sI14101
F0.5095000000000001
sI14105
F0.36450000000000005
sI14109
F0.5
sI14111
F0.55
sI14112
F0.5
sI14113
F0.4990642515
sI14115
F0.5
sI14117
F0.5
sI14119
F0.55
sI14123
F0.5
sI14127
F0.5
sI14129
F0.5
sI14138
F0.5
sI14139
F0.5
sI14141
F0.5
sI14144
F0.5
sI14145
F0.5
sI14146
F1.0
sI14148
F0.5
sI14149
F0.4980260064080476
sI14151
F0.5
sI14153
F0.5
sI14155
F0.5011956461845378
sI14157
F0.5
sI14159
F0.5
sI14162
F0.5
sI14163
F0.55
sI14164
F0.4541297023945172
sI14167
F0.46217024796698264
sI14169
F0.5
sI14170
F0.36804946455000004
sI14177
F0.505
sI14181
F0.5
sI14183
F0.5
sI14192
F1.0
sI14193
F0.5
sI14195
F0.5
sI14198
F0.5
sI14199
F0.5
sI14200
F0.5758698039399999
sI14210
F1.0
sI14222
F1.0
sI14226
F1.0
sI14229
F0.51799281808645
sI14231
F0.5950000000000001
sI14234
F0.5
sI14235
F0.55
sI14236
F0.5542392015691254
sI14240
F1.0
sI14244
F1.0
sI14247
F0.52964814295
sI14248
F0.3010571939935264
sI14250
F0.6051393369999999
sI14252
F0.7847663949999999
sI14254
F0.156905298045
sI14256
F0.5
sI14257
F0.5
sI14259
F0.45
sI14261
I0
sI14263
F0.5
sI14265
F0.5
sI14267
I0
sI14271
F0.5
sI14272
F0.32805000000000006
sI14275
F0.704755
sI14277
F0.5
sI14278
F0.517195
sI14283
F0.45
sI14285
I0
sI14289
F0.5
sI14290
F1.0
sI14298
F0.5
sI14300
I0
sI14301
F0.55
sI14302
F1.0
sI14304
F0.5
sI14306
I0
sI14311
F0.5383772939602661
sI14313
F0.5
sI14314
F0.4375950470305677
sI14319
F0.49995
sI14320
F0.5654248555475502
sI14322
F0.5
sI14324
I0
sI14326
F0.0675425858836496
sI14332
F0.009124001815700363
sI14338
F0.9951511313510624
sI14340
F0.5005
sI14341
F0.5
sI14346
F0.5
sI14347
F0.5095000000000001
sI14349
F0.505
sI14351
F0.5
sI14353
F0.7608515499999999
sI14359
I0
sI14364
F0.55
sI14365
F1.0
sI14367
F0.5
sI14369
F0.4905
sI14373
F0.5
sI14375
F0.55
sI14378
F0.405
sI14379
F0.5
sI14380
F1.0
sI14385
I0
sI14395
F0.55
sI14401
F0.9994694416940018
sI14403
F0.55
sI14404
F1.0
sI14418
F0.5
sI14419
F0.405
sI14421
F0.45
sI14423
F0.5
sI14425
F0.7608515499999999
sI14427
F1.0
sI14432
F1.0
sI14434
F1.0
sI14437
I0
sI14439
I0
sI14445
F0.5
sI14447
F0.55
sI14450
F0.45
sI14451
F0.5
sI14452
F1.0
sI14456
F1.0
sI14460
F1.0
sI14463
I0
sI14468
I0
sI14473
F0.7342795
sI14475
F0.5
sI14476
F0.45
sI14482
F1.0
sI14484
F1.0
sI14494
I0
sI14503
F0.5
sI14509
F0.55
sI14511
F0.5
sI14512
F1.0
sI14529
F0.5
sI14530
F1.0
sI14535
F0.5
sI14536
F1.0
sI14538
F0.5
sI14540
I0
sI14584
F0.9999836040747607
sI14590
F0.67195
sI14592
F0.5
sI14593
F1.0
sI14608
F0.4778414947436426
sI14610
F0.5014
sI14611
F0.405
sI14616
F0.5
sI14617
F0.45
sI14619
F0.5
sI14621
F0.5
sI14623
F0.4740929823570744
sI14629
F0.4795245
sI14662
F0.5775738715491636
sI14664
F0.5950000000000001
sI14665
F0.2657205
sI14670
F0.5100288746788232
sI14671
F0.5
sI14673
F0.5
sI14675
F0.5
sI14677
F0.47178580005
sI14683
F0.9999999999999996
sI14688
F0.55
sI14689
F0.41400000000000003
sI14691
F0.5
sI14693
F0.5
sI14695
F0.9999999999969211
sI14697
F0.5
sI14699
F0.5
sI14702
F0.5
sI14703
F0.5
sI14704
F0.08338590849833284
sI14707
F0.7608515499999999
sI14709
F0.5
sI14710
F0.0443146905982625
sI14719
F0.7608515499999999
sI14725
F0.55
sI14727
F0.5
sI14728
F1.0
sI14773
F0.55
sI14779
F0.704755
sI14781
F0.55
sI14782
F1.0
sI14824
F0.5085219743552238
sI14826
F0.487755
sI14827
F0.3313305
sI14832
F0.495
sI14833
F0.40905
sI14835
F0.45
sI14837
F0.5
sI14839
F0.49905
sI14845
F0.25027915691568087
sI14850
F0.5950000000000001
sI14851
F0.4484633445
sI14853
F0.45
sI14855
F0.5
sI14857
F0.55
sI14859
F0.5
sI14861
F0.5
sI14864
F0.5
sI14865
F0.5
sI14866
F0.405
sI14869
F0.5
sI14871
F0.55
sI14872
F0.1412147682405
sI14881
F0.55
sI14887
F0.5
sI14889
F0.5
sI14890
F1.0
sI14904
F0.55
sI14905
F0.405
sI14907
F0.45
sI14909
F0.5
sI14911
F0.5
sI14913
F0.45
sI14915
F0.7342795
sI14918
F0.45
sI14919
F0.5
sI14920
F0.405
sI14923
F0.9999999999999996
sI14925
F0.5
sI14926
F0.007390441470717294
sI14931
F1.0
sI14936
F1.0
sI14938
F1.0
sI14942
F1.0
sI14946
F1.0
sI14950
F1.0
sI14952
F1.0
sI14959
F0.487937102445
sI14961
F0.5
sI14962
F0.45
sI14967
F0.5
sI14968
F0.45
sI14970
F0.5
sI14972
I0
sI14974
F0.2657205
sI14980
F0.9990016609444919
sI14989
F0.5
sI14995
F0.5950000000000001
sI14997
F0.5
sI14998
F1.0
sI15013
F0.434633445
sI15015
F0.5
sI15016
F0.32805000000000006
sI15021
F0.334982116607391
sI15022
F0.2176250895
sI15024
F0.23914845
sI15026
I0
sI15028
F0.29524500000000004
sI15034
I0
sI15097
F0.55
sI15103
F0.6355000000000001
sI15105
F0.5
sI15106
F1.0
sI15151
F0.5
sI15157
F0.7608515499999999
sI15159
F0.5
sI15160
F1.0
sI15175
F0.495
sI15177
F0.5
sI15178
F0.45
sI15183
F0.5005
sI15184
F0.5
sI15186
F0.5
sI15188
F0.5
sI15190
F0.23914845
sI15196
I0
sI15309
F0.5107628619121486
sI15310
F0.4997440242431581
sI15312
F0.497383542
sI15314
F0.5950000000000001
sI15316
F0.5050992208649112
sI15318
F0.5
sI15320
F0.5
sI15323
F0.5
sI15324
F0.5005
sI15325
F0.5
sI15328
F0.5151162343650015
sI15330
F0.55
sI15331
F0.34344
sI15336
F0.49954540499999994
sI15338
F0.5
sI15341
F0.5
sI15342
F0.5
sI15343
F0.504955
sI15347
F0.5
sI15351
F0.5
sI15353
F0.5
sI15354
F0.5005
sI15355
F0.45
sI15357
F0.5
sI15359
F0.55
sI15361
F0.55
sI15364
F0.5049648550000001
sI15366
F0.5
sI15367
F0.5257450000000001
sI15372
F0.5
sI15373
F0.5
sI15375
F0.5
sI15377
F0.5
sI15379
F0.5017195
sI15385
F0.55
sI15390
F0.5205874996481337
sI15392
F0.55
sI15395
F1.0
sI15396
F0.5161010875126909
sI15397
F0.5
sI15401
F0.5
sI15405
F0.5305249915220279
sI15407
F0.5950000000000001
sI15408
F0.55
sI15409
F0.013362562107092787
sI15411
F1.0
sI15415
F0.5736738905139143
sI15419
F0.5
sI15423
F0.5
sI15425
F0.5
sI15434
F0.5
sI15435
F0.5
sI15437
F0.5
sI15440
F1.0
sI15441
F0.5
sI15442
F0.5
sI15444
F0.5950000000000001
sI15445
F0.5
sI15447
F1.0
sI15451
F0.4905163867005
sI15453
F0.5
sI15455
F0.5
sI15458
F1.0
sI15459
F0.5950000000000001
sI15460
F0.4670233605
sI15463
F0.5950000000000001
sI15466
F1.0
sI15472
F0.5617947011551546
sI15474
F0.486446355
sI15475
F0.504955
sI15480
F0.503967295
sI15481
F0.6348110771732359
sI15483
F0.45
sI15485
I0
sI15487
F0.4554666228076791
sI15493
F0.4995
sI15498
F0.5210555299411095
sI15499
F0.5533393794243695
sI15501
F0.5
sI15503
I0
sI15505
F0.5950000000000001
sI15507
F0.405
sI15509
I0
sI15513
F0.480411
sI15514
F0.2501467915992673
sI15517
F0.5950000000000001
sI15519
F0.5
sI15520
F0.5
sI15529
F0.5950000000000001
sI15535
F0.7342795
sI15537
F0.5
sI15538
F1.0
sI15552
F0.49881263772221607
sI15554
F0.5
sI15557
F0.5
sI15558
F0.499995
sI15559
F0.49995
sI15563
F0.45
sI15567
F0.5
sI15569
F0.5
sI15570
F0.50095
sI15571
F0.5317028498647269
sI15573
F0.505
sI15575
F0.5
sI15577
F0.5732830714761645
sI15581
F0.5
sI15585
F0.5
sI15587
F0.5
sI15596
F0.5
sI15597
F0.5095000000000001
sI15599
F0.55
sI15602
F0.5
sI15603
F0.5
sI15604
F0.5
sI15606
F0.5
sI15607
F0.49995
sI15609
F0.5
sI15611
F0.5
sI15613
F0.4995
sI15615
F0.5
sI15617
F0.5
sI15620
F0.5
sI15621
F0.5
sI15622
F0.4673295
sI15625
F0.5010201162827039
sI15627
F0.5
sI15628
F0.40512603640499995
sI15635
F0.5
sI15639
F0.5
sI15641
F0.5
sI15650
F0.5
sI15651
F0.5
sI15653
F0.5
sI15656
F1.0
sI15657
F0.5
sI15658
F0.7584741486227157
sI15668
F1.0
sI15680
F1.0
sI15684
F1.0
sI15687
F0.5
sI15689
F0.5
sI15692
F1.0
sI15693
F0.5
sI15694
F0.42907008150000003
sI15698
F0.5
sI15702
F0.5
sI15704
F0.5
sI15705
F0.5
sI15706
F0.38886770419160505
sI15708
F1.0
sI15712
F7.057908193109183e-06
sI15714
F0.4926263772221609
sI15715
F0.5116173450184572
sI15717
F0.45
sI15719
I0
sI15721
F0.51567146671555
sI15723
F0.405
sI15725
I0
sI15729
F0.5
sI15730
F0.19957051073391407
sI15733
F0.5598118384265426
sI15735
F0.5
sI15736
F0.495
sI15741
F0.45
sI15743
I0
sI15747
F0.5
sI15748
F0.5532222915415
sI15756
F0.397305
sI15758
I0
sI15759
F0.5
sI15760
F0.405
sI15762
F0.5
sI15764
I0
sI15766
F0.7847663949999999
sI15769
F0.5565828673397829
sI15771
F0.5
sI15772
F0.5672351917895009
sI15777
F0.5
sI15778
F0.6485937738014339
sI15780
F0.5
sI15782
I0
sI15784
F3.6374872261187584e-08
sI15790
F0.156905298045
sI15796
F0.5020630817661781
sI15798
F0.5
sI15799
F0.5
sI15804
F0.5
sI15805
F0.5206308176617813
sI15807
F0.505
sI15809
F0.55
sI15811
F0.5501603816178114
sI15817
I0
sI15822
F0.5
sI15823
F0.5
sI15825
F0.5
sI15827
F0.5
sI15829
F0.55
sI15831
F0.5
sI15833
F0.5
sI15836
F0.5
sI15837
F0.5
sI15838
F0.495
sI15841
I0
sI15843
I0
sI15853
F0.5950000000000001
sI15859
F0.5950000000000001
sI15861
F0.5
sI15862
F1.0
sI15876
F0.5950000000000001
sI15877
F0.45
sI15879
F1.0
sI15883
F0.5
sI15885
F0.5
sI15887
F0.5
sI15890
F1.0
sI15891
F0.5950000000000001
sI15892
F0.4590736884
sI15895
I0
sI15903
F0.45
sI15905
F0.55
sI15908
F1.0
sI15909
F0.5
sI15910
F0.45
sI15914
F0.5
sI15918
F0.5
sI15920
F0.5950000000000001
sI15921
I0
sI15928
I0
sI15931
F0.6355000000000001
sI15934
F1.0
sI15939
F0.5
sI15940
F0.5
sI15942
F1.0
sI15946
F0.82566077995
sI15961
F0.55
sI15967
F0.7342795
sI15969
F0.5
sI15970
F1.0
sI15985
F0.67195
sI15987
F0.5
sI15988
F0.5
sI15993
F0.5
sI15994
F0.5
sI15996
F0.5
sI15998
I0
sI16000
F0.9999993744619643
sI16006
I0
sI16038
F0.4995
sI16040
F0.6058122316600238
sI16043
F0.45
sI16044
F0.5
sI16045
F0.5218565364581914
sI16049
F0.5
sI16053
F0.505
sI16055
F0.55
sI16056
F0.495
sI16057
F0.45
sI16059
F0.5
sI16061
F0.5
sI16063
F0.55
sI16067
F0.5
sI16071
F0.5
sI16073
F0.5
sI16082
F0.45
sI16083
F0.45
sI16085
F0.5
sI16088
F0.5
sI16089
F0.5
sI16090
F1.0
sI16092
F0.5
sI16093
F0.495404993754
sI16095
F0.5
sI16097
F0.5
sI16099
F0.5786005462617492
sI16101
F0.5
sI16103
F0.5
sI16106
F0.5
sI16107
F0.5
sI16108
F0.7801121519707548
sI16111
F0.4956354
sI16113
F0.5
sI16114
F0.36450000000000005
sI16121
F0.6735284387459485
sI16125
F0.5
sI16127
F0.7342795
sI16136
F1.0
sI16137
F0.5
sI16139
F0.7342795
sI16142
F1.0
sI16143
F0.5
sI16144
F0.5
sI16154
F0.5
sI16166
F0.5
sI16170
F0.5
sI16172
I0
sI16173
F0.5
sI16175
F0.7342795
sI16178
F1.0
sI16179
F0.5
sI16180
F0.4632795
sI16184
F1.0
sI16188
F1.0
sI16191
F0.5
sI16192
F0.29524500000000004
sI16194
F1.0
sI16198
F0.32805000000000006
sI16200
F0.47255572277686414
sI16201
F0.4502039473027995
sI16203
F0.45
sI16205
I0
sI16207
F0.55
sI16209
F0.45
sI16211
I0
sI16215
F0.4758087648390081
sI16216
F0.38073249394193764
sI16219
F0.704755
sI16221
F0.39058633913355
sI16222
F0.32805000000000006
sI16227
F0.40905
sI16229
I0
sI16233
F0.5
sI16234
F1.0
sI16242
F0.405
sI16244
I0
sI16245
F0.5950000000000001
sI16246
F1.0
sI16248
F0.29524500000000004
sI16250
I0
sI16255
F0.38635202379623546
sI16257
F0.5
sI16258
F0.32805000000000006
sI16263
F0.5
sI16264
F0.17433922005
sI16266
F0.5
sI16268
I0
sI16270
F4.167624208949041e-06
sI16276
F0.405
sI16283
F0.5
sI16287
F0.5
sI16289
F0.5
sI16298
F0.5
sI16299
F0.5
sI16301
F0.5
sI16304
F0.5
sI16305
F0.5
sI16306
F0.5
sI16316
F0.5
sI16328
F0.5
sI16332
F0.5
sI16334
I0
sI16335
F0.4995
sI16337
F0.5
sI16340
F0.5
sI16341
F0.5
sI16342
F0.45766984499999996
sI16346
F0.5
sI16350
F0.5
sI16352
F0.5
sI16353
F0.5
sI16354
F0.37850030546091806
sI16356
F0.5
sI16358
F0.5
sI16360
F0.215233605
sI16370
F0.405
sI16382
F0.45
sI16386
F0.5
sI16388
I0
sI16418
F0.5
sI16422
F0.5
sI16424
F0.5
sI16433
F1.0
sI16434
F0.5
sI16436
F0.5
sI16439
F1.0
sI16440
F0.5
sI16441
F0.0
sI16443
F0.45
sI16445
I0
sI16449
F0.5
sI16450
F0.5
sI16458
F0.405
sI16460
I0
sI16461
F0.5
sI16462
F0.6776902053369039
sI16464
F0.29524500000000004
sI16466
I0
sI16468
F0.9392116727047154
sI16476
F0.5
sI16478
I0
sI16488
F0.5
sI16490
I0
sI16494
F0.5
sI16495
F1.0
sI16497
F0.495
sI16498
F0.30696814781539966
sI16500
F0.5
sI16502
I0
sI16504
F0.029074868501520024
sI16506
F0.45
sI16508
I0
sI16512
F0.5
sI16513
F0.0
sI16516
F0.0443146905982625
sI16518
F0.5
sI16519
F0.0
sI16524
F0.5
sI16525
F0.5
sI16527
F0.5
sI16529
F0.5
sI16531
F0.55
sI16533
F0.5
sI16535
F0.5
sI16538
F0.5
sI16539
F0.5
sI16540
F0.689865429428651
sI16543
I0
sI16545
I0
sI16551
F0.5
sI16553
F0.4905
sI16556
F0.45
sI16557
F0.5
sI16558
F1.0
sI16562
F0.45
sI16566
F0.5
sI16568
F0.5
sI16569
I0
sI16574
I0
sI16579
F0.48195
sI16581
F0.5
sI16582
F0.405
sI16587
F0.5
sI16588
F0.405
sI16590
F0.5
sI16592
F0.5
sI16594
F0.9452905054342439
sI16600
I0
sI16605
F0.5
sI16607
F0.7342795
sI16610
F1.0
sI16611
F0.5
sI16612
F0.45
sI16616
F1.0
sI16620
F1.0
sI16623
I0
sI16630
I0
sI16634
F0.5
sI16638
F0.5
sI16640
F0.5
sI16649
F1.0
sI16652
I0
sI16656
I0
sI16659
F0.5
sI16660
F0.36450000000000005
sI16662
F1.0
sI16666
F0.55
sI16668
F1.0
sI16673
F1.0
sI16675
F1.0
sI16678
I0
sI16687
F0.55
sI16689
F0.5
sI16690
F0.5
sI16695
F0.5
sI16696
F0.5
sI16698
F0.5
sI16700
I0
sI16702
F0.9999972656217565
sI16708
I0
sI16713
F0.55
sI16714
F1.0
sI16716
F0.5
sI16718
I0
sI16722
F0.5
sI16724
I0
sI16728
F0.5
sI16729
F1.0
sI16734
I0
sI16744
I0
sI16750
I0
sI16752
I0
sI16768
F0.5261067311048822
sI16770
F0.5
sI16771
F0.5221
sI16776
F0.5
sI16777
F0.5
sI16779
F0.5
sI16781
F0.5
sI16783
F0.4974255
sI16789
F0.5950000000000001
sI16794
F0.500005
sI16795
F0.4487409095561917
sI16797
F0.514
sI16799
F0.5
sI16801
F0.4995
sI16803
F0.50005
sI16805
F0.5
sI16808
F0.5
sI16809
F0.5
sI16810
F0.43867885451091804
sI16813
F0.3840811829899155
sI16815
F0.5950000000000001
sI16816
F0.29524500000000004
sI16825
F0.55
sI16831
F0.5
sI16833
F0.5
sI16834
F1.0
sI16848
F0.55
sI16849
F0.6032229503628044
sI16851
F1.0
sI16855
F0.5095379565443363
sI16857
F0.5207852790715328
sI16859
F0.5950000000000001
sI16862
F1.0
sI16863
F0.5236281909869567
sI16864
F0.41452398
sI16867
F0.7342795
sI16870
F1.0
sI16875
F0.5
sI16877
F0.5
sI16880
F1.0
sI16881
F0.5
sI16882
F0.4925259186864309
sI16886
F0.5095000000000001
sI16890
F0.49005
sI16892
F0.5950000000000001
sI16893
F0.5
sI16894
F0.29524500000000004
sI16896
F1.0
sI16900
F0.9249526823515004
sI16903
F0.7608515499999999
sI16906
F1.0
sI16911
F0.55
sI16912
F0.5
sI16914
F1.0
sI16918
F0.215233605
sI16933
F0.55
sI16939
F0.7342795
sI16941
F0.5
sI16942
F1.0
sI16957
F0.5777746091661308
sI16959
F0.5
sI16960
F0.5
sI16965
F0.5602415823380018
sI16966
F0.7752820460922123
sI16968
F0.5
sI16970
I0
sI16972
F0.00392758360563947
sI16978
I0
sI17010
F0.5
sI17011
F0.5162570673233893
sI17013
F0.4995
sI17015
F0.5
sI17017
F0.5067441044547749
sI17019
F0.5
sI17021
F0.5
sI17024
F0.5
sI17025
F0.5
sI17026
F0.43197624
sI17029
F0.5826314413484701
sI17031
F0.55
sI17032
F0.14562837654652203
sI17037
F0.5
sI17039
F0.5
sI17042
F0.5
sI17043
F0.5
sI17044
F0.5286712787595
sI17048
F0.5
sI17052
F0.5
sI17054
F0.5
sI17055
F0.55
sI17056
F0.274282605
sI17058
F0.5
sI17060
F0.5
sI17062
F0.7608515499999999
sI17065
F0.55150955838451
sI17067
F0.5
sI17068
F0.6512978842034499
sI17073
F0.5
sI17074
F0.495
sI17076
F0.5
sI17078
I0
sI17080
F0.23914845
sI17086
F0.843094701955
sI17091
F0.5
sI17093
F0.5
sI17096
F1.0
sI17097
F0.5
sI17098
F0.44614800000000004
sI17102
F0.5
sI17106
F0.5819912900067377
sI17108
F0.82566077995
sI17109
F0.5
sI17110
F0.8104013312349739
sI17112
F1.0
sI17116
F0.9788044208623918
sI17120
F1.0
sI17124
F1.0
sI17135
F1.0
sI17136
F1.0
sI17141
F1.0
sI17143
F1.0
sI17145
F0.5
sI17146
F0.43581784401
sI17148
F1.0
sI17152
F0.17433922005
sI17154
F0.5
sI17156
I0
sI17160
F0.2657205
sI17161
F0.0
sI17164
F0.9999929420918069
sI17167
F1.0
sI17173
F0.5533760341331037
sI17175
F0.495
sI17176
F0.45
sI17181
F0.5
sI17182
F0.6262243372667179
sI17184
F0.45
sI17186
I0
sI17188
F0.007390441470717294
sI17194
I0
sI17199
F0.5
sI17200
F0.32805000000000006
sI17202
F0.5
sI17204
I0
sI17206
F0.215233605
sI17208
F0.23914845
sI17210
I0
sI17214
F0.36450000000000005
sI17215
F0.0
sI17218
I0
sI17220
I0
sI17230
F0.843094701955
sI17236
F0.9507614548908194
sI17238
F0.5
sI17239
F1.0
sI17257
F0.6355000000000001
sI17263
F0.55
sI17265
F0.5
sI17266
F1.0
sI17281
F0.5021695
sI17283
F0.5
sI17284
F0.5
sI17289
F0.5005
sI17290
F0.521695
sI17292
F0.5
sI17294
F0.5
sI17296
F0.2657205
sI17302
I0
sI17335
F0.7342795
sI17338
F1.0
sI17343
F0.55
sI17344
F0.5
sI17346
F1.0
sI17350
F0.17433922005
sI17361
F0.5
sI17362
F0.5
sI17364
F1.0
sI17368
F0.08338590849833284
sI17370
F0.505
sI17372
F0.55
sI17375
F1.0
sI17376
F0.405
sI17377
F0.0
sI17380
I0
sI17398
F0.5
sI17401
F1.0
sI17446
F0.5
sI17452
F0.9738326183486319
sI17454
F0.55
sI17455
F1.0
sI17500
F0.55
sI17506
F0.704755
sI17508
F0.5
sI17509
F1.0
sI17524
F0.55
sI17526
F0.4905
sI17527
F0.5
sI17532
F0.5
sI17533
F0.5
sI17535
F0.45
sI17537
F0.5
sI17539
F0.55
sI17545
F0.5
sI17578
F0.6167987632215084
sI17580
F0.5454064948757746
sI17581
F0.36450000000000005
sI17586
F0.55
sI17587
F0.5
sI17589
F0.405
sI17591
F0.5
sI17593
F0.843094701955
sI17599
F0.5
sI17604
F0.55
sI17605
F0.45
sI17607
F0.32805000000000006
sI17609
F0.5
sI17611
F0.5
sI17613
F0.5
sI17615
F0.55
sI17618
F0.5
sI17619
F0.55
sI17620
F0.5
sI17623
F0.5
sI17625
F0.5
sI17626
F0.5
sI17635
F0.7342795
sI17641
F0.5
sI17643
F0.5
sI17644
F1.0
sI17689
F0.5
sI17695
F0.5
sI17697
F0.5
sI17698
F1.0
sI17740
F0.5014
sI17742
F0.5
sI17743
F0.5
sI17748
F0.49185
sI17749
F0.5
sI17751
F0.4545
sI17753
F0.5
sI17755
F0.5
sI17761
F0.5
sI17766
F0.55
sI17767
F0.5
sI17769
F0.45
sI17771
F0.5
sI17773
F0.5950000000000001
sI17775
F0.45
sI17777
F0.5
sI17780
F0.5
sI17781
F0.5
sI17782
F0.5
sI17785
F0.5
sI17787
F0.5
sI17788
F0.5
sI17797
F0.55
sI17803
F0.5
sI17805
F0.55
sI17806
F1.0
sI17820
F0.6355000000000001
sI17821
F0.5
sI17823
F0.45
sI17825
F0.5
sI17827
F0.6355000000000001
sI17829
F0.5
sI17831
F0.7342795
sI17834
F0.5
sI17835
F0.5
sI17836
F0.5
sI17839
F0.999999999934634
sI17841
F0.5
sI17842
F0.19410300286056395
sI17847
F1.0
sI17852
F1.0
sI17854
F1.0
sI17858
F1.0
sI17862
F1.0
sI17866
F1.0
sI17868
F1.0
sI17875
F0.501355
sI17877
F0.495
sI17878
F0.45
sI17883
F0.6355000000000001
sI17884
F0.5
sI17886
F0.5
sI17888
F0.5
sI17890
F0.7608515499999999
sI17896
F0.0007277891714653445
sI17905
F0.5950000000000001
sI17911
F0.55
sI17913
F0.5
sI17914
F1.0
sI17929
F0.5
sI17931
F0.5
sI17932
F0.5
sI17937
F0.5
sI17938
F0.5
sI17940
F0.5
sI17942
I0
sI17944
I0
sI17950
F0.55
sI18013
F0.5
sI18019
F0.5
sI18021
F0.5
sI18022
F1.0
sI18067
F0.5950000000000001
sI18073
F0.7342795
sI18075
F0.5
sI18076
F1.0
sI18091
F0.5
sI18093
F0.5
sI18094
F0.5
sI18099
F0.5
sI18100
F0.45
sI18102
F0.5
sI18104
F0.5950000000000001
sI18106
F0.7608515499999999
sI18112
I0
sI18226
F0.9933486026763544
sI18228
F0.5005
sI18229
F0.505
sI18234
F0.5
sI18235
F0.5
sI18237
F0.5
sI18239
F0.5
sI18241
F0.7608515499999999
sI18247
F0.6355000000000001
sI18252
F0.5
sI18253
F1.0
sI18255
F0.5
sI18257
F0.5
sI18261
F0.5
sI18263
F0.5
sI18266
F0.5
sI18267
F0.5
sI18268
F1.0
sI18273
F0.5
sI18274
F1.0
sI18283
F0.5950000000000001
sI18289
F0.9992722108285347
sI18291
F0.5
sI18292
F1.0
sI18306
F0.5
sI18307
F0.6883818694354513
sI18309
F0.5870724655065098
sI18311
F0.704755
sI18313
F0.704755
sI18315
F1.0
sI18320
F1.0
sI18322
F1.0
sI18325
F0.7608515499999999
sI18327
F0.4929595383115465
sI18328
F0.32805000000000006
sI18333
F0.5
sI18335
F0.5
sI18338
F0.505
sI18339
F0.5
sI18340
F1.0
sI18344
F1.0
sI18348
F1.0
sI18351
F0.5
sI18352
F1.0
sI18354
F0.36450000000000005
sI18356
F0.55
sI18361
F0.7608515499999999
sI18363
F0.704755
sI18364
F0.5
sI18370
F1.0
sI18372
F1.0
sI18382
F0.23914845
sI18391
F0.5950000000000001
sI18397
F0.55
sI18399
F0.5
sI18400
F1.0
sI18417
F0.5
sI18418
F1.0
sI18423
F0.5
sI18424
F1.0
sI18426
F0.5
sI18428
I0
sI18468
F0.5
sI18469
F0.5124907281011141
sI18471
F0.5
sI18473
F0.5
sI18475
F0.55
sI18477
F0.5
sI18479
F0.5
sI18482
F0.5
sI18483
F0.5
sI18484
F0.5
sI18487
F0.55
sI18489
F0.5
sI18490
F0.5
sI18495
F0.505
sI18497
F0.5
sI18500
F0.5
sI18501
F0.5
sI18502
F1.0
sI18506
F0.5
sI18510
F0.5
sI18512
F0.5
sI18513
F0.55
sI18514
F1.0
sI18516
F0.5
sI18518
F0.5
sI18523
F0.53940728101114
sI18525
F0.5
sI18526
F0.5
sI18531
F0.5
sI18532
F0.6350125922038
sI18534
F0.5
sI18536
F0.5
sI18538
F0.8587852317595001
sI18544
F0.1937102445
sI18549
F0.505
sI18551
F0.55
sI18554
F0.53587852317595
sI18555
F0.55
sI18556
F0.5
sI18560
F1.0
sI18564
F1.0
sI18567
F0.5
sI18568
F0.558146790505
sI18570
F0.46701280569241316
sI18572
F0.87290670858355
sI18574
F0.82566077995
sI18578
F1.0
sI18582
F1.0
sI18593
F1.0
sI18594
F1.0
sI18599
F1.0
sI18601
F1.0
sI18603
F0.55
sI18604
F0.51355
sI18606
F0.5
sI18608
F0.5
sI18610
F0.7847663949999999
sI18612
F1.0
sI18617
F1.0
sI18619
F1.0
sI18622
F0.17433922005
sI18624
F0.12709329141645
sI18625
F0.0
sI18631
F0.55
sI18633
F0.495
sI18634
F0.5
sI18639
F0.5
sI18640
F0.5
sI18642
F0.5
sI18644
I0
sI18646
I0
sI18652
F0.82566077995
sI18657
F0.5
sI18658
F1.0
sI18660
F0.45
sI18662
I0
sI18666
F0.5
sI18668
I0
sI18672
I0
sI18678
F0.5
sI18679
F1.0
sI18688
F0.9898622202047773
sI18694
F0.9392116727047154
sI18696
F0.5
sI18697
F1.0
sI18715
F0.5950000000000001
sI18721
F0.55
sI18723
F0.5
sI18724
F1.0
sI18741
F0.5
sI18742
F1.0
sI18747
F0.5
sI18748
F1.0
sI18750
F0.5
sI18752
F0.5
sI18793
F0.7608515499999999
sI18795
F0.704755
sI18796
F0.5
sI18802
F1.0
sI18804
F1.0
sI18814
I0
sI18819
F0.5
sI18820
F1.0
sI18822
F0.45
sI18824
F0.843094701955
sI18828
F1.0
sI18833
F1.0
sI18835
F1.0
sI18840
I0
sI18850
F0.5
sI18859
F1.0
sI18912
F0.5
sI18913
F1.0
sI18985
I0
sI18991
I0
sI18993
I0
sI19039
I0
sI19045
I0
sI19047
I0
sI19063
I0
sI19065
I0
sI19071
I0
sI19076
I0
sI19078
I0
sI19084
I0
sI19201
I0
sI19207
I0
sI19209
I0
sI19225
I0
sI19227
I0
sI19233
I0
sI19238
I0
sI19240
I0
sI19246
I0
sI19279
I0
sI19281
I0
sI19287
I0
sI19292
I0
sI19294
I0
sI19300
I0
sI19336
I0
sI19342
I0
sI19344
I0
sI19390
I0
sI19396
I0
sI19398
I0
sI19552
I0
sI19558
I0
sI19560
I0
s.